(dp1
S'shiyanshi'
p2
(dp3
S'jc'
p4
S'sy'
p5
sS'py'
p6
g2
sS'id'
p7
S'4203'
p8
sS'mc'
p9
S'\xe5\x8d\x81\xe5\xa0\xb0'
p10
sS'sl'
p11
I4
ssS'dongying'
p12
(dp13
S'jc'
p14
S'dy'
p15
sS'py'
p16
g12
sS'id'
p17
S'3705'
p18
sS'mc'
p19
S'\xe4\xb8\x9c\xe8\x90\xa5'
p20
sS'sl'
p21
I6
ssS'yangshuoguilin'
p22
(dp23
S'jc'
p24
S'ys(gl)'
p25
sS'py'
p26
g22
sS'id'
p27
S'450321'
p28
sS'mc'
p29
S'\xe9\x98\xb3\xe6\x9c\x94(\xe6\xa1\x82\xe6\x9e\x97)'
p30
sS'sl'
p31
I2
ssS'jianjinggangshan'
p32
(dp33
S'jc'
p34
S'(jgs)ja'
p35
sS'py'
p36
g32
sS'id'
p37
S'362421'
p38
sS'mc'
p39
S'(\xe4\xba\x95\xe5\x86\x88\xe5\xb1\xb1)\xe5\x90\x89\xe5\xae\x89'
p40
sS'sl'
p41
I1
ssS'shangluo'
p42
(dp43
S'jc'
p44
S'sls'
p45
sS'py'
p46
g42
sS'id'
p47
S'611000'
p48
sS'mc'
p49
S'\xe5\x95\x86\xe6\xb4\x9b\xe5\xb8\x82'
p50
sS'sl'
p51
I1
ssS'huaihua'
p52
(dp53
S'jc'
p54
S'hh'
p55
sS'py'
p56
g52
sS'id'
p57
S'4312'
p58
sS'mc'
p59
S'\xe6\x80\x80\xe5\x8c\x96'
p60
sS'sl'
p61
I1
ssS'shanxianheze'
p62
(dp63
S'jc'
p64
S'dx(hz)'
p65
sS'py'
p66
g62
sS'id'
p67
S'372925'
p68
sS'mc'
p69
S'\xe5\x8d\x95\xe5\x8e\xbf(\xe8\x8f\x8f\xe6\xb3\xbd)'
p70
sS'sl'
p71
I1
ssS'jurong'
p72
(dp73
S'jc'
p74
S'jr'
p75
sS'py'
p76
g72
sS'id'
p77
S'321183'
p78
sS'mc'
p79
S'\xe5\x8f\xa5\xe5\xae\xb9'
p80
sS'sl'
p81
I2
ssS'chishui'
p82
(dp83
S'jc'
p84
S'cs'
p85
sS'py'
p86
g82
sS'id'
p87
S'520381'
p88
sS'mc'
p89
S'\xe8\xb5\xa4\xe6\xb0\xb4'
p90
sS'sl'
p91
I1
ssS'xuyihuaian'
p92
(dp93
S'jc'
p94
S'xy(ha)'
p95
sS'py'
p96
g92
sS'id'
p97
S'320830'
p98
sS'mc'
p99
S'\xe7\x9b\xb1\xe7\x9c\x99(\xe6\xb7\xae\xe5\xae\x89)'
p100
sS'sl'
p101
I3
ssS'shanghai'
p102
(dp103
S'jc'
p104
S'sh'
p105
sS'py'
p106
g102
sS'id'
p107
S'3101'
p108
sS'mc'
p109
S'\xe4\xb8\x8a\xe6\xb5\xb7'
p110
sS'sl'
p111
I518
ssS'xixia'
p112
(dp113
S'jc'
p114
S'xx'
p115
sS'py'
p116
g112
sS'id'
p117
S'411323'
p118
sS'mc'
p119
S'\xe8\xa5\xbf\xe5\xb3\xa1'
p120
sS'sl'
p121
I1
ssS'pingyinjinan'
p122
(dp123
S'jc'
p124
S'py(jn)'
p125
sS'py'
p126
g122
sS'id'
p127
S'370124'
p128
sS'mc'
p129
S'\xe5\xb9\xb3\xe9\x98\xb4(\xe6\xb5\x8e\xe5\x8d\x97)'
p130
sS'sl'
p131
I1
ssS'puyang'
p132
(dp133
S'jc'
p134
S'py'
p135
sS'py'
p136
g132
sS'id'
p137
S'4109'
p138
sS'mc'
p139
S'\xe6\xbf\xae\xe9\x98\xb3'
p140
sS'sl'
p141
I1
ssS'gdhys'
p142
(dp143
S'jc'
p144
S'hy'
p145
sS'py'
p146
g142
sS'id'
p147
S'4416'
p148
sS'mc'
p149
S'\xe6\xb2\xb3\xe6\xba\x90'
p150
sS'sl'
p151
I2
ssS'langzhong'
p152
(dp153
S'jc'
p154
S'lz'
p155
sS'py'
p156
g152
sS'id'
p157
S'511381'
p158
sS'mc'
p159
S'\xe9\x98\x86\xe4\xb8\xad'
p160
sS'sl'
p161
I2
ssS'dingyuanchuzhou'
p162
(dp163
S'jc'
p164
S'dy(cz)'
p165
sS'py'
p166
g162
sS'id'
p167
S'341125'
p168
sS'mc'
p169
S'\xe5\xae\x9a\xe8\xbf\x9c(\xe6\xbb\x81\xe5\xb7\x9e)'
p170
sS'sl'
p171
I1
ssS'sheyangyancheng'
p172
(dp173
S'jc'
p174
S'sy(yc)'
p175
sS'py'
p176
g172
sS'id'
p177
S'320924'
p178
sS'mc'
p179
S'\xe5\xb0\x84\xe9\x98\xb3(\xe7\x9b\x90\xe5\x9f\x8e)'
p180
sS'sl'
p181
I1
ssS'huolinguole'
p182
(dp183
S'jc'
p184
S'hlgl'
p185
sS'py'
p186
g182
sS'id'
p187
S'150581'
p188
sS'mc'
p189
S'\xe9\x9c\x8d\xe6\x9e\x97\xe9\x83\xad\xe5\x8b\x92'
p190
sS'sl'
p191
I1
ssS'leting'
p192
(dp193
S'jc'
p194
S'lt'
p195
sS'py'
p196
g192
sS'id'
p197
S'130225'
p198
sS'mc'
p199
S'\xe4\xb9\x90\xe4\xba\xad'
p200
sS'sl'
p201
I1
ssS'huayin'
p202
(dp203
S'jc'
p204
S'hy'
p205
sS'py'
p206
g202
sS'id'
p207
S'610582'
p208
sS'mc'
p209
S'\xe5\x8d\x8e\xe9\x98\xb4'
p210
sS'sl'
p211
I1
ssS'yintan'
p212
(dp213
S'jc'
p214
S'yt'
p215
sS'py'
p216
g212
sS'id'
p217
S'3606'
p218
sS'mc'
p219
S'\xe9\xb9\xb0\xe6\xbd\xad'
p220
sS'sl'
p221
I3
ssS'laiyangyantai'
p222
(dp223
S'jc'
p224
S'ly(yt)'
p225
sS'py'
p226
g222
sS'id'
p227
S'370682'
p228
sS'mc'
p229
S'\xe8\x8e\xb1\xe9\x98\xb3(\xe7\x83\x9f\xe5\x8f\xb0)'
p230
sS'sl'
p231
I1
ssS'yangzhou'
p232
(dp233
S'jc'
p234
S'yz'
p235
sS'py'
p236
g232
sS'id'
p237
S'3210'
p238
sS'mc'
p239
S'\xe6\x89\xac\xe5\xb7\x9e'
p240
sS'sl'
p241
I26
ssS'jingbianyulin'
p242
(dp243
S'jc'
p244
S'jb(yl)'
p245
sS'py'
p246
g242
sS'id'
p247
S'612725'
p248
sS'mc'
p249
S'\xe9\x9d\x96\xe8\xbe\xb9(\xe6\xa6\x86\xe6\x9e\x97)'
p250
sS'sl'
p251
I1
ssS'huimingbinzhou'
p252
(dp253
S'jc'
p254
S'hm(bz)'
p255
sS'py'
p256
g252
sS'id'
p257
S'372321'
p258
sS'mc'
p259
S'\xe6\x83\xa0\xe6\xb0\x91(\xe6\xbb\xa8\xe5\xb7\x9e)'
p260
sS'sl'
p261
I1
ssS'wuxi'
p262
(dp263
S'jc'
p264
S'wx'
p265
sS'py'
p266
g262
sS'id'
p267
S'3202'
p268
sS'mc'
p269
S'\xe6\x97\xa0\xe9\x94\xa1'
p270
sS'sl'
p271
I56
ssS'yongkang'
p272
(dp273
S'jc'
p274
S'yk'
p275
sS'py'
p276
g272
sS'id'
p277
S'330784'
p278
sS'mc'
p279
S'\xe6\xb0\xb8\xe5\xba\xb7'
p280
sS'sl'
p281
I1
ssS'ankang'
p282
(dp283
S'jc'
p284
S'ak'
p285
sS'py'
p286
g282
sS'id'
p287
S'6124'
p288
sS'mc'
p289
S'\xe5\xae\x89\xe5\xba\xb7'
p290
sS'sl'
p291
I2
ssS'heihe'
p292
(dp293
S'jc'
p294
S'hh'
p295
sS'py'
p296
g292
sS'id'
p297
S'2311'
p298
sS'mc'
p299
S'\xe9\xbb\x91\xe6\xb2\xb3'
p300
sS'sl'
p301
I1
ssS'tongliao'
p302
(dp303
S'jc'
p304
S'tl'
p305
sS'py'
p306
g302
sS'id'
p307
S'1505'
p308
sS'mc'
p309
S'\xe9\x80\x9a\xe8\xbe\xbd'
p310
sS'sl'
p311
I6
ssS'qiqihaer'
p312
(dp313
S'jc'
p314
S'qqhe'
p315
sS'py'
p316
g312
sS'id'
p317
S'2302'
p318
sS'mc'
p319
S'\xe9\xbd\x90\xe9\xbd\x90\xe5\x93\x88\xe5\xb0\x94'
p320
sS'sl'
p321
I5
ssS'zhuhai'
p322
(dp323
S'jc'
p324
S'zh'
p325
sS'py'
p326
g322
sS'id'
p327
S'4404'
p328
sS'mc'
p329
S'\xe7\x8f\xa0\xe6\xb5\xb7'
p330
sS'sl'
p331
I17
ssS'dongtaiyancheng'
p332
(dp333
S'jc'
p334
S'dt(yc)'
p335
sS'py'
p336
g332
sS'id'
p337
S'320981'
p338
sS'mc'
p339
S'\xe4\xb8\x9c\xe5\x8f\xb0(\xe7\x9b\x90\xe5\x9f\x8e)'
p340
sS'sl'
p341
I2
ssS'zhangjiakou'
p342
(dp343
S'jc'
p344
S'zjk'
p345
sS'py'
p346
g342
sS'id'
p347
S'1307'
p348
sS'mc'
p349
S'\xe5\xbc\xa0\xe5\xae\xb6\xe5\x8f\xa3'
p350
sS'sl'
p351
I11
ssS'changsha'
p352
(dp353
S'jc'
p354
S'cs'
p355
sS'py'
p356
g352
sS'id'
p357
S'4301'
p358
sS'mc'
p359
S'\xe9\x95\xbf\xe6\xb2\x99'
p360
sS'sl'
p361
I31
ssS'jilin'
p362
(dp363
S'jc'
p364
S'jl'
p365
sS'py'
p366
g362
sS'id'
p367
S'2202'
p368
sS'mc'
p369
S'\xe5\x90\x89\xe6\x9e\x97'
p370
sS'sl'
p371
I4
ssS'ziyang'
p372
(dp373
S'jc'
p374
S'zy'
p375
sS'py'
p376
g372
sS'id'
p377
S'5139'
p378
sS'mc'
p379
S'\xe8\xb5\x84\xe9\x98\xb3'
p380
sS'sl'
p381
I1
ssS'xinzhou'
p382
(dp383
S'jc'
p384
S'xz'
p385
sS'py'
p386
g382
sS'id'
p387
S'1422'
p388
sS'mc'
p389
S'\xe5\xbf\xbb\xe5\xb7\x9e'
p390
sS'sl'
p391
I2
ssS'tongling'
p392
(dp393
S'jc'
p394
S'tl'
p395
sS'py'
p396
g392
sS'id'
p397
S'3407'
p398
sS'mc'
p399
S'\xe9\x93\x9c\xe9\x99\xb5'
p400
sS'sl'
p401
I5
ssS'haicheng'
p402
(dp403
S'jc'
p404
S'hc'
p405
sS'py'
p406
g402
sS'id'
p407
S'210319'
p408
sS'mc'
p409
S'\xe6\xb5\xb7\xe5\x9f\x8e'
p410
sS'sl'
p411
I1
ssS'xingtai'
p412
(dp413
S'jc'
p414
S'xt'
p415
sS'py'
p416
g412
sS'id'
p417
S'1305'
p418
sS'mc'
p419
S'\xe9\x82\xa2\xe5\x8f\xb0'
p420
sS'sl'
p421
I5
ssS'huaibei'
p422
(dp423
S'jc'
p424
S'hb'
p425
sS'py'
p426
g422
sS'id'
p427
S'3406'
p428
sS'mc'
p429
S'\xe6\xb7\xae\xe5\x8c\x97'
p430
sS'sl'
p431
I2
ssS'qihedezhou'
p432
(dp433
S'jc'
p434
S'qh(dz)'
p435
sS'py'
p436
g432
sS'id'
p437
S'372425'
p438
sS'mc'
p439
S'\xe9\xbd\x90\xe6\xb2\xb3(\xe5\xbe\xb7\xe5\xb7\x9e)'
p440
sS'sl'
p441
I1
ssS'guangzhou'
p442
(dp443
S'jc'
p444
S'gz'
p445
sS'py'
p446
g442
sS'id'
p447
S'4401'
p448
sS'mc'
p449
S'\xe5\xb9\xbf\xe5\xb7\x9e'
p450
sS'sl'
p451
I85
ssS'zhangzhou'
p452
(dp453
S'jc'
p454
S'zz'
p455
sS'py'
p456
g452
sS'id'
p457
S'3506'
p458
sS'mc'
p459
S'\xe6\xbc\xb3\xe5\xb7\x9e'
p460
sS'sl'
p461
I3
ssS'wuhan'
p462
(dp463
S'jc'
p464
S'wh'
p465
sS'py'
p466
g462
sS'id'
p467
S'4201'
p468
sS'mc'
p469
S'\xe6\xad\xa6\xe6\xb1\x89'
p470
sS'sl'
p471
I77
ssS'changzhi'
p472
(dp473
S'jc'
p474
S'cz'
p475
sS'py'
p476
g472
sS'id'
p477
S'1404'
p478
sS'mc'
p479
S'\xe9\x95\xbf\xe6\xb2\xbb'
p480
sS'sl'
p481
I4
ssS'wuhai'
p482
(dp483
S'jc'
p484
S'wh'
p485
sS'py'
p486
g482
sS'id'
p487
S'1503'
p488
sS'mc'
p489
S'\xe4\xb9\x8c\xe6\xb5\xb7'
p490
sS'sl'
p491
I3
ssS'changli'
p492
(dp493
S'jc'
p494
S'cl'
p495
sS'py'
p496
g492
sS'id'
p497
S'130322'
p498
sS'mc'
p499
S'\xe6\x98\x8c\xe9\xbb\x8e'
p500
sS'sl'
p501
I1
ssS'chongqing'
p502
(dp503
S'jc'
p504
S'cq'
p505
sS'py'
p506
g502
sS'id'
p507
S'5001'
p508
sS'mc'
p509
S'\xe9\x87\x8d\xe5\xba\x86'
p510
sS'sl'
p511
I46
ssS'sihong'
p512
(dp513
S'jc'
p514
S'sh'
p515
sS'py'
p516
g512
sS'id'
p517
S'320827'
p518
sS'mc'
p519
S'\xe6\xb3\x97\xe6\xb4\xaa'
p520
sS'sl'
p521
I1
ssS'changshu'
p522
(dp523
S'jc'
p524
S'cs'
p525
sS'py'
p526
g522
sS'id'
p527
S'320581'
p528
sS'mc'
p529
S'\xe5\xb8\xb8\xe7\x86\x9f'
p530
sS'sl'
p531
I6
ssS'wuyuanxianshangrao'
p532
(dp533
S'jc'
p534
S'wyx(sr)'
p535
sS'py'
p536
g532
sS'id'
p537
S'362334'
p538
sS'mc'
p539
S'\xe5\xa9\xba\xe6\xba\x90\xe5\x8e\xbf(\xe4\xb8\x8a\xe9\xa5\xb6)'
p540
sS'sl'
p541
I2
ssS'linhai'
p542
(dp543
S'jc'
p544
S'lh'
p545
sS'py'
p546
g542
sS'id'
p547
S'331082'
p548
sS'mc'
p549
S'\xe4\xb8\xb4\xe6\xb5\xb7'
p550
sS'sl'
p551
I1
ssS'eerduosi'
p552
(dp553
S'jc'
p554
S'eeds'
p555
sS'py'
p556
g552
sS'id'
p557
S'1506'
p558
sS'mc'
p559
S'\xe9\x84\x82\xe5\xb0\x94\xe5\xa4\x9a\xe6\x96\xaf'
p560
sS'sl'
p561
I5
ssS'hulunbeier'
p562
(dp563
S'jc'
p564
S'hlbe'
p565
sS'py'
p566
g562
sS'id'
p567
S'150700'
p568
sS'mc'
p569
S'\xe5\x91\xbc\xe4\xbc\xa6\xe8\xb4\x9d\xe5\xb0\x94'
p570
sS'sl'
p571
I3
ssS'changzhou'
p572
(dp573
S'jc'
p574
S'cz'
p575
sS'py'
p576
g572
sS'id'
p577
S'3204'
p578
sS'mc'
p579
S'\xe5\xb8\xb8\xe5\xb7\x9e'
p580
sS'sl'
p581
I25
ssS'anxiquanzhou'
p582
(dp583
S'jc'
p584
S'ax(qz)'
p585
sS'py'
p586
g582
sS'id'
p587
S'350524'
p588
sS'mc'
p589
S'\xe5\xae\x89\xe6\xba\xaa(\xe6\xb3\x89\xe5\xb7\x9e)'
p590
sS'sl'
p591
I1
ssS'hengshui'
p592
(dp593
S'jc'
p594
S'hs'
p595
sS'py'
p596
g592
sS'id'
p597
S'1311'
p598
sS'mc'
p599
S'\xe8\xa1\xa1\xe6\xb0\xb4'
p600
sS'sl'
p601
I4
ssS'lanlinglinyi'
p602
(dp603
S'jc'
p604
S'll(ly)'
p605
sS'py'
p606
g602
sS'id'
p607
S'371324'
p608
sS'mc'
p609
S'\xe5\x85\xb0\xe9\x99\xb5(\xe4\xb8\xb4\xe6\xb2\x82)'
p610
sS'sl'
p611
I1
ssS'xichang(liangshan)'
p612
(dp613
S'jc'
p614
S'xc\xef\xbc\x88ls\xef\xbc\x89'
p615
sS'py'
p616
g612
sS'id'
p617
S'513401'
p618
sS'mc'
p619
S'\xe8\xa5\xbf\xe6\x98\x8c\xef\xbc\x88\xe5\x87\x89\xe5\xb1\xb1\xef\xbc\x89'
p620
sS'sl'
p621
I4
ssS'qinzhouweifang'
p622
(dp623
S'jc'
p624
S'qz(wf)'
p625
sS'py'
p626
g622
sS'id'
p627
S'370781'
p628
sS'mc'
p629
S'\xe9\x9d\x92\xe5\xb7\x9e(\xe6\xbd\x8d\xe5\x9d\x8a)'
p630
sS'sl'
p631
I1
ssS'gaizhouyingkou'
p632
(dp633
S'jc'
p634
S'gz(yk)'
p635
sS'py'
p636
g632
sS'id'
p637
S'210881'
p638
sS'mc'
p639
S'\xe7\x9b\x96\xe5\xb7\x9e(\xe8\x90\xa5\xe5\x8f\xa3)'
p640
sS'sl'
p641
I2
ssS'yanshi'
p642
(dp643
S'jc'
p644
S'ys'
p645
sS'py'
p646
g642
sS'id'
p647
S'410381'
p648
sS'mc'
p649
S'\xe5\x81\x83\xe5\xb8\x88'
p650
sS'sl'
p651
I1
ssS'nanjing'
p652
(dp653
S'jc'
p654
S'nj'
p655
sS'py'
p656
g652
sS'id'
p657
S'3201'
p658
sS'mc'
p659
S'\xe5\x8d\x97\xe4\xba\xac'
p660
sS'sl'
p661
I139
ssS'jiashan'
p662
(dp663
S'jc'
p664
S'js(jx)'
p665
sS'py'
p666
g662
sS'id'
p667
S'330421'
p668
sS'mc'
p669
S'\xe5\x98\x89\xe5\x96\x84(\xe5\x98\x89\xe5\x85\xb4)'
p670
sS'sl'
p671
I1
ssS'langfang'
p672
(dp673
S'jc'
p674
S'lf'
p675
sS'py'
p676
g672
sS'id'
p677
S'1310'
p678
sS'mc'
p679
S'\xe5\xbb\x8a\xe5\x9d\x8a'
p680
sS'sl'
p681
I10
ssS'liyang'
p682
(dp683
S'jc'
p684
S'ly'
p685
sS'py'
p686
g682
sS'id'
p687
S'320481'
p688
sS'mc'
p689
S'\xe6\xba\xa7\xe9\x98\xb3'
p690
sS'sl'
p691
I4
ssS'zunyi'
p692
(dp693
S'jc'
p694
S'zy'
p695
sS'py'
p696
g692
sS'id'
p697
S'5203'
p698
sS'mc'
p699
S'\xe9\x81\xb5\xe4\xb9\x89'
p700
sS'sl'
p701
I3
ssS'fuxin'
p702
(dp703
S'jc'
p704
S'fx'
p705
sS'py'
p706
g702
sS'id'
p707
S'2109'
p708
sS'mc'
p709
S'\xe9\x98\x9c\xe6\x96\xb0'
p710
sS'sl'
p711
I3
ssS'yibin'
p712
(dp713
S'jc'
p714
S'yb'
p715
sS'py'
p716
g712
sS'id'
p717
S'5115'
p718
sS'mc'
p719
S'\xe5\xae\x9c\xe5\xae\xbe'
p720
sS'sl'
p721
I6
ssS'datong'
p722
(dp723
S'jc'
p724
S'dt'
p725
sS'py'
p726
g722
sS'id'
p727
S'1402'
p728
sS'mc'
p729
S'\xe5\xa4\xa7\xe5\x90\x8c'
p730
sS'sl'
p731
I5
ssS'dandong'
p732
(dp733
S'jc'
p734
S'dd'
p735
sS'py'
p736
g732
sS'id'
p737
S'2106'
p738
sS'mc'
p739
S'\xe4\xb8\xb9\xe4\xb8\x9c'
p740
sS'sl'
p741
I6
ssS'anqing'
p742
(dp743
S'jc'
p744
S'aq'
p745
sS'py'
p746
g742
sS'id'
p747
S'3408'
p748
sS'mc'
p749
S'\xe5\xae\x89\xe5\xba\x86'
p750
sS'sl'
p751
I3
ssS'pingliang'
p752
(dp753
S'jc'
p754
S'pl'
p755
sS'py'
p756
g752
sS'id'
p757
S'6227'
p758
sS'mc'
p759
S'\xe5\xb9\xb3\xe5\x87\x89'
p760
sS'sl'
p761
I2
ssS'zhangjiagang'
p762
(dp763
S'jc'
p764
S'zjg'
p765
sS'py'
p766
g762
sS'id'
p767
S'320582'
p768
sS'mc'
p769
S'\xe5\xbc\xa0\xe5\xae\xb6\xe6\xb8\xaf'
p770
sS'sl'
p771
I7
ssS'longkouyantai'
p772
(dp773
S'jc'
p774
S'lk(yt)'
p775
sS'py'
p776
g772
sS'id'
p777
S'370681'
p778
sS'mc'
p779
S'\xe9\xbe\x99\xe5\x8f\xa3(\xe7\x83\x9f\xe5\x8f\xb0)'
p780
sS'sl'
p781
I1
ssS'zoupingbinzhou'
p782
(dp783
S'jc'
p784
S'zp(bz)'
p785
sS'py'
p786
g782
sS'id'
p787
S'372330'
p788
sS'mc'
p789
S'\xe9\x82\xb9\xe5\xb9\xb3(\xe6\xbb\xa8\xe5\xb7\x9e)'
p790
sS'sl'
p791
I1
ssS'jiaxing'
p792
(dp793
S'jc'
p794
S'jx'
p795
sS'py'
p796
g792
sS'id'
p797
S'3304'
p798
sS'mc'
p799
S'\xe5\x98\x89\xe5\x85\xb4'
p800
sS'sl'
p801
I11
ssS'guyuan'
p802
(dp803
S'jc'
p804
S'gy'
p805
sS'py'
p806
g802
sS'id'
p807
S'640400'
p808
sS'mc'
p809
S'\xe5\x9b\xba\xe5\x8e\x9f'
p810
sS'sl'
p811
I1
ssS'pingyaojinzhong'
p812
(dp813
S'jc'
p814
S'py(jz)'
p815
sS'py'
p816
g812
sS'id'
p817
S'142431'
p818
sS'mc'
p819
S'\xe5\xb9\xb3\xe9\x81\xa5(\xe6\x99\x8b\xe4\xb8\xad)'
p820
sS'sl'
p821
I3
ssS'lingyuanchaoyang'
p822
(dp823
S'jc'
p824
S'ly(cy)'
p825
sS'py'
p826
g822
sS'id'
p827
S'211382'
p828
sS'mc'
p829
S'\xe5\x87\x8c\xe6\xba\x90(\xe6\x9c\x9d\xe9\x98\xb3)'
p830
sS'sl'
p831
I1
ssS'shandonglinshulinyi'
p832
(dp833
S'jc'
p834
S'ls(ly)'
p835
sS'py'
p836
g832
sS'id'
p837
S'371329'
p838
sS'mc'
p839
S'\xe4\xb8\xb4\xe6\xb2\xad(\xe4\xb8\xb4\xe6\xb2\x82)'
p840
sS'sl'
p841
I1
ssS'lijiang'
p842
(dp843
S'jc'
p844
S'lj'
p845
sS'py'
p846
g842
sS'id'
p847
S'530700'
p848
sS'mc'
p849
S'\xe4\xb8\xbd\xe6\xb1\x9f'
p850
sS'sl'
p851
I10
ssS'qitaihe'
p852
(dp853
S'jc'
p854
S'qth'
p855
sS'py'
p856
g852
sS'id'
p857
S'2309'
p858
sS'mc'
p859
S'\xe4\xb8\x83\xe5\x8f\xb0\xe6\xb2\xb3'
p860
sS'sl'
p861
I1
ssS'shijiazhuang'
p862
(dp863
S'jc'
p864
S'sjz'
p865
sS'py'
p866
g862
sS'id'
p867
S'1301'
p868
sS'mc'
p869
S'\xe7\x9f\xb3\xe5\xae\xb6\xe5\xba\x84'
p870
sS'sl'
p871
I34
ssS'sanheshi'
p872
(dp873
S'jc'
p874
S'sh'
p875
sS'py'
p876
g872
sS'id'
p877
S'131082'
p878
sS'mc'
p879
S'\xe4\xb8\x89\xe6\xb2\xb3'
p880
sS'sl'
p881
I2
ssS'my'
p882
(dp883
S'jc'
p884
S'my'
p885
sS'py'
p886
g882
sS'id'
p887
S'5107'
p888
sS'mc'
p889
S'\xe7\xbb\xb5\xe9\x98\xb3'
p890
sS'sl'
p891
I7
ssS'beijing'
p892
(dp893
S'jc'
p894
S'bj'
p895
sS'py'
p896
g892
sS'id'
p897
S'1101'
p898
sS'mc'
p899
S'\xe5\x8c\x97\xe4\xba\xac'
p900
sS'sl'
p901
I310
ssS'benxi'
p902
(dp903
S'jc'
p904
S'bx'
p905
sS'py'
p906
g902
sS'id'
p907
S'2105'
p908
sS'mc'
p909
S'\xe6\x9c\xac\xe6\xba\xaa'
p910
sS'sl'
p911
I2
ssS'liangshanyizu'
p912
(dp913
S'jc'
p914
S'lsyzzzz'
p915
sS'py'
p916
g912
sS'id'
p917
S'5134'
p918
sS'mc'
p919
S'\xe5\x87\x89\xe5\xb1\xb1\xe5\xbd\x9d\xe6\x97\x8f\xe8\x87\xaa\xe6\xb2\xbb\xe5\xb7\x9e'
p920
sS'sl'
p921
I0
ssS'yongjia'
p922
(dp923
S'jc'
p924
S'yj'
p925
sS'py'
p926
g922
sS'id'
p927
S'330324'
p928
sS'mc'
p929
S'\xe6\xb0\xb8\xe5\x98\x89'
p930
sS'sl'
p931
I1
ssS'puning'
p932
(dp933
S'jc'
p934
S'pn'
p935
sS'py'
p936
g932
sS'id'
p937
S'445281'
p938
sS'mc'
p939
S'\xe6\x99\xae\xe5\xae\x81'
p940
sS'sl'
p941
I1
ssS'xuanhua'
p942
(dp943
S'jc'
p944
S'xh'
p945
sS'py'
p946
g942
sS'id'
p947
S'130721'
p948
sS'mc'
p949
S'\xe5\xae\xa3\xe5\x8c\x96'
p950
sS'sl'
p951
I1
ssS'wuyijinhua'
p952
(dp953
S'jc'
p954
S'wy(jh)'
p955
sS'py'
p956
g952
sS'id'
p957
S'330723'
p958
sS'mc'
p959
S'\xe6\xad\xa6\xe4\xb9\x89(\xe9\x87\x91\xe5\x8d\x8e)'
p960
sS'sl'
p961
I1
ssS'detiandaxin'
p962
(dp963
S'jc'
p964
S'dt(dx)'
p965
sS'py'
p966
g962
sS'id'
p967
S'451424'
p968
sS'mc'
p969
S'\xe5\xbe\xb7\xe5\xa4\xa9(\xe5\xa4\xa7\xe6\x96\xb0)'
p970
sS'sl'
p971
I1
ssS'bayanzhuoer'
p972
(dp973
S'jc'
p974
S'byne'
p975
sS'py'
p976
g972
sS'id'
p977
S'1528'
p978
sS'mc'
p979
S'\xe5\xb7\xb4\xe5\xbd\xa6\xe6\xb7\x96\xe5\xb0\x94'
p980
sS'sl'
p981
I1
ssS'huanghuacangzhou'
p982
(dp983
S'jc'
p984
S'hh(cz)'
p985
sS'py'
p986
g982
sS'id'
p987
S'130983'
p988
sS'mc'
p989
S'\xe9\xbb\x84\xe9\xaa\x85(\xe6\xb2\xa7\xe5\xb7\x9e)'
p990
sS'sl'
p991
I1
ssS'shihezi'
p992
(dp993
S'jc'
p994
S'shz'
p995
sS'py'
p996
g992
sS'id'
p997
S'659001'
p998
sS'mc'
p999
S'\xe7\x9f\xb3\xe6\xb2\xb3\xe5\xad\x90'
p1000
sS'sl'
p1001
I1
ssS'dehong'
p1002
(dp1003
S'jc'
p1004
S'dh'
p1005
sS'py'
p1006
g1002
sS'id'
p1007
S'5331'
p1008
sS'mc'
p1009
S'\xe5\xbe\xb7\xe5\xae\x8f'
p1010
sS'sl'
p1011
I1
ssS'kunshan'
p1012
(dp1013
S'jc'
p1014
S'ks'
p1015
sS'py'
p1016
g1012
sS'id'
p1017
S'320583'
p1018
sS'mc'
p1019
S'\xe6\x98\x86\xe5\xb1\xb1'
p1020
sS'sl'
p1021
I16
ssS'changchun'
p1022
(dp1023
S'jc'
p1024
S'cc'
p1025
sS'py'
p1026
g1022
sS'id'
p1027
S'2201'
p1028
sS'mc'
p1029
S'\xe9\x95\xbf\xe6\x98\xa5'
p1030
sS'sl'
p1031
I29
ssS'xinganmeng'
p1032
(dp1033
S'jc'
p1034
S'xam'
p1035
sS'py'
p1036
g1032
sS'id'
p1037
S'1522'
p1038
sS'mc'
p1039
S'\xe5\x85\xb4\xe5\xae\x89\xe7\x9b\x9f'
p1040
sS'sl'
p1041
I0
ssS'poyangshangrao'
p1042
(dp1043
S'jc'
p1044
S'py(sr)'
p1045
sS'py'
p1046
g1042
sS'id'
p1047
S'362330'
p1048
sS'mc'
p1049
S'\xe9\x84\xb1\xe9\x98\xb3(\xe4\xb8\x8a\xe9\xa5\xb6)'
p1050
sS'sl'
p1051
I1
ssS'jintan'
p1052
(dp1053
S'jc'
p1054
S'jt'
p1055
sS'py'
p1056
g1052
sS'id'
p1057
S'320482'
p1058
sS'mc'
p1059
S'\xe9\x87\x91\xe5\x9d\x9b'
p1060
sS'sl'
p1061
I2
ssS'guangde'
p1062
(dp1063
S'jc'
p1064
S'gd'
p1065
sS'py'
p1066
g1062
sS'id'
p1067
S'341723'
p1068
sS'mc'
p1069
S'\xe5\xb9\xbf\xe5\xbe\xb7'
p1070
sS'sl'
p1071
I1
ssS'changgeshi'
p1072
(dp1073
S'jc'
p1074
S'cgs'
p1075
sS'py'
p1076
g1072
sS'id'
p1077
S'411082'
p1078
sS'mc'
p1079
S'\xe9\x95\xbf\xe8\x91\x9b\xe5\xb8\x82'
p1080
sS'sl'
p1081
I1
ssS'nanchang'
p1082
(dp1083
S'jc'
p1084
S'nc'
p1085
sS'py'
p1086
g1082
sS'id'
p1087
S'3601'
p1088
sS'mc'
p1089
S'\xe5\x8d\x97\xe6\x98\x8c'
p1090
sS'sl'
p1091
I36
ssS'jiyuan'
p1092
(dp1093
S'jc'
p1094
S'jy'
p1095
sS'py'
p1096
g1092
sS'id'
p1097
S'4119'
p1098
sS'mc'
p1099
S'\xe6\xb5\x8e\xe6\xba\x90'
p1100
sS'sl'
p1101
I2
ssS'huanrenxian'
p1102
(dp1103
S'jc'
p1104
S'hrx'
p1105
sS'py'
p1106
g1102
sS'id'
p1107
S'210522'
p1108
sS'mc'
p1109
S'\xe6\xa1\x93\xe4\xbb\x81\xe5\x8e\xbf'
p1110
sS'sl'
p1111
I1
ssS'kuitun'
p1112
(dp1113
S'jc'
p1114
S'kt'
p1115
sS'py'
p1116
g1112
sS'id'
p1117
S'654001'
p1118
sS'mc'
p1119
S'\xe5\xa5\x8e\xe5\xb1\xaf'
p1120
sS'sl'
p1121
I1
ssS'ruilidehong'
p1122
(dp1123
S'jc'
p1124
S'rl(dh)'
p1125
sS'py'
p1126
g1122
sS'id'
p1127
S'533102'
p1128
sS'mc'
p1129
S'\xe7\x91\x9e\xe4\xb8\xbd(\xe5\xbe\xb7\xe5\xae\x8f)'
p1130
sS'sl'
p1131
I2
ssS'xiangshuiyancheng'
p1132
(dp1133
S'jc'
p1134
S'xs(yc)'
p1135
sS'py'
p1136
g1132
sS'id'
p1137
S'320921'
p1138
sS'mc'
p1139
S'\xe5\x93\x8d\xe6\xb0\xb4(\xe7\x9b\x90\xe5\x9f\x8e)'
p1140
sS'sl'
p1141
I1
ssS'beihai'
p1142
(dp1143
S'jc'
p1144
S'bh'
p1145
sS'py'
p1146
g1142
sS'id'
p1147
S'4505'
p1148
sS'mc'
p1149
S'\xe5\x8c\x97\xe6\xb5\xb7'
p1150
sS'sl'
p1151
I3
ssS'rudongnantong'
p1152
(dp1153
S'jc'
p1154
S'rd(nt)'
p1155
sS'py'
p1156
g1152
sS'id'
p1157
S'320623'
p1158
sS'mc'
p1159
S'\xe5\xa6\x82\xe4\xb8\x9c(\xe5\x8d\x97\xe9\x80\x9a)'
p1160
sS'sl'
p1161
I2
ssS'xiaoyi'
p1162
(dp1163
S'jc'
p1164
S'xy'
p1165
sS'py'
p1166
g1162
sS'id'
p1167
S'141181'
p1168
sS'mc'
p1169
S'\xe5\xad\x9d\xe4\xb9\x89'
p1170
sS'sl'
p1171
I2
ssS'hengyang'
p1172
(dp1173
S'jc'
p1174
S'hy'
p1175
sS'py'
p1176
g1172
sS'id'
p1177
S'4304'
p1178
sS'mc'
p1179
S'\xe8\xa1\xa1\xe9\x98\xb3'
p1180
sS'sl'
p1181
I4
ssS'songyuan'
p1182
(dp1183
S'jc'
p1184
S'sy'
p1185
sS'py'
p1186
g1182
sS'id'
p1187
S'2207'
p1188
sS'mc'
p1189
S'\xe6\x9d\xbe\xe5\x8e\x9f'
p1190
sS'sl'
p1191
I2
ssS'xinyang'
p1192
(dp1193
S'jc'
p1194
S'xy'
p1195
sS'py'
p1196
g1192
sS'id'
p1197
S'4115'
p1198
sS'mc'
p1199
S'\xe4\xbf\xa1\xe9\x98\xb3'
p1200
sS'sl'
p1201
I4
ssS'gaobeidian'
p1202
(dp1203
S'jc'
p1204
S'gbd'
p1205
sS'py'
p1206
g1202
sS'id'
p1207
S'130684'
p1208
sS'mc'
p1209
S'\xe9\xab\x98\xe7\xa2\x91\xe5\xba\x97'
p1210
sS'sl'
p1211
I1
ssS'liaoyang'
p1212
(dp1213
S'jc'
p1214
S'ly'
p1215
sS'py'
p1216
g1212
sS'id'
p1217
S'2110'
p1218
sS'mc'
p1219
S'\xe8\xbe\xbd\xe9\x98\xb3'
p1220
sS'sl'
p1221
I1
ssS'kaifeng'
p1222
(dp1223
S'jc'
p1224
S'kf'
p1225
sS'py'
p1226
g1222
sS'id'
p1227
S'4102'
p1228
sS'mc'
p1229
S'\xe5\xbc\x80\xe5\xb0\x81'
p1230
sS'sl'
p1231
I13
ssS'linyi'
p1232
(dp1233
S'jc'
p1234
S'ly'
p1235
sS'py'
p1236
g1232
sS'id'
p1237
S'3713'
p1238
sS'mc'
p1239
S'\xe4\xb8\xb4\xe6\xb2\x82'
p1240
sS'sl'
p1241
I23
ssS'luguhunilang'
p1242
(dp1243
S'jc'
p1244
S'lgh(nl)'
p1245
sS'py'
p1246
g1242
sS'id'
p1247
S'530724'
p1248
sS'mc'
p1249
S'\xe6\xb3\xb8\xe6\xb2\xbd\xe6\xb9\x96(\xe5\xae\x81\xe8\x92\x97)'
p1250
sS'sl'
p1251
I1
ssS'anyangshi'
p1252
(dp1253
S'jc'
p1254
S'ay'
p1255
sS'py'
p1256
g1252
sS'id'
p1257
S'4105'
p1258
sS'mc'
p1259
S'\xe5\xae\x89\xe9\x98\xb3'
p1260
sS'sl'
p1261
I4
ssS'wenlingshi'
p1262
(dp1263
S'jc'
p1264
S'wl'
p1265
sS'py'
p1266
g1262
sS'id'
p1267
S'331081'
p1268
sS'mc'
p1269
S'\xe6\xb8\xa9\xe5\xb2\xad'
p1270
sS'sl'
p1271
I1
ssS'gaoyou'
p1272
(dp1273
S'jc'
p1274
S'gy'
p1275
sS'py'
p1276
g1272
sS'id'
p1277
S'321084'
p1278
sS'mc'
p1279
S'\xe9\xab\x98\xe9\x82\xae'
p1280
sS'sl'
p1281
I2
ssS'jiuquan'
p1282
(dp1283
S'jc'
p1284
S'jq'
p1285
sS'py'
p1286
g1282
sS'id'
p1287
S'622102'
p1288
sS'mc'
p1289
S'\xe9\x85\x92\xe6\xb3\x89'
p1290
sS'sl'
p1291
I2
ssS'rugao'
p1292
(dp1293
S'jc'
p1294
S'rg'
p1295
sS'py'
p1296
g1292
sS'id'
p1297
S'320682'
p1298
sS'mc'
p1299
S'\xe5\xa6\x82\xe7\x9a\x8b'
p1300
sS'sl'
p1301
I3
ssS'jiande'
p1302
(dp1303
S'jc'
p1304
S'jd'
p1305
sS'py'
p1306
g1302
sS'id'
p1307
S'330182'
p1308
sS'mc'
p1309
S'\xe5\xbb\xba\xe5\xbe\xb7'
p1310
sS'sl'
p1311
I2
ssS'danyang'
p1312
(dp1313
S'jc'
p1314
S'dy'
p1315
sS'py'
p1316
g1312
sS'id'
p1317
S'321181'
p1318
sS'mc'
p1319
S'\xe4\xb8\xb9\xe9\x98\xb3'
p1320
sS'sl'
p1321
I2
ssS'xiangyang'
p1322
(dp1323
S'jc'
p1324
S'xy'
p1325
sS'py'
p1326
g1322
sS'id'
p1327
S'4206'
p1328
sS'mc'
p1329
S'\xe8\xa5\x84\xe9\x98\xb3'
p1330
sS'sl'
p1331
I3
ssS'dafengyancheng'
p1332
(dp1333
S'jc'
p1334
S'df(yc)'
p1335
sS'py'
p1336
g1332
sS'id'
p1337
S'320982'
p1338
sS'mc'
p1339
S'\xe5\xa4\xa7\xe4\xb8\xb0(\xe7\x9b\x90\xe5\x9f\x8e)'
p1340
sS'sl'
p1341
I1
ssS'linanhangzhou'
p1342
(dp1343
S'jc'
p1344
S'la(hz)'
p1345
sS'py'
p1346
g1342
sS'id'
p1347
S'330185'
p1348
sS'mc'
p1349
S'\xe4\xb8\xb4\xe5\xae\x89(\xe6\x9d\xad\xe5\xb7\x9e)'
p1350
sS'sl'
p1351
I1
ssS'huaian'
p1352
(dp1353
S'jc'
p1354
S'ha'
p1355
sS'py'
p1356
g1352
sS'id'
p1357
S'3208'
p1358
sS'mc'
p1359
S'\xe6\xb7\xae\xe5\xae\x89'
p1360
sS'sl'
p1361
I14
ssS'fushun'
p1362
(dp1363
S'jc'
p1364
S'fs'
p1365
sS'py'
p1366
g1362
sS'id'
p1367
S'2104'
p1368
sS'mc'
p1369
S'\xe6\x8a\x9a\xe9\xa1\xba'
p1370
sS'sl'
p1371
I3
ssS'yinanlinyi'
p1372
(dp1373
S'jc'
p1374
S'yn(ly)'
p1375
sS'py'
p1376
g1372
sS'id'
p1377
S'372832'
p1378
sS'mc'
p1379
S'\xe6\xb2\x82\xe5\x8d\x97(\xe4\xb8\xb4\xe6\xb2\x82)'
p1380
sS'sl'
p1381
I1
ssS'yueyang'
p1382
(dp1383
S'jc'
p1384
S'yy'
p1385
sS'py'
p1386
g1382
sS'id'
p1387
S'4306'
p1388
sS'mc'
p1389
S'\xe5\xb2\xb3\xe9\x98\xb3'
p1390
sS'sl'
p1391
I3
ssS'jiyangjinan'
p1392
(dp1393
S'jc'
p1394
S'jy(jn)'
p1395
sS'py'
p1396
g1392
sS'id'
p1397
S'370125'
p1398
sS'mc'
p1399
S'\xe6\xb5\x8e\xe9\x98\xb3(\xe6\xb5\x8e\xe5\x8d\x97)'
p1400
sS'sl'
p1401
I1
ssS'huoerguosi'
p1402
(dp1403
S'jc'
p1404
S'hegs'
p1405
sS'py'
p1406
g1402
sS'id'
p1407
S'654004'
p1408
sS'mc'
p1409
S'\xe9\x9c\x8d\xe5\xb0\x94\xe6\x9e\x9c\xe6\x96\xaf'
p1410
sS'sl'
p1411
I2
ssS'sanya'
p1412
(dp1413
S'jc'
p1414
S'sy'
p1415
sS'py'
p1416
g1412
sS'id'
p1417
S'4602'
p1418
sS'mc'
p1419
S'\xe4\xb8\x89\xe4\xba\x9a'
p1420
sS'sl'
p1421
I14
ssS'huhehaote'
p1422
(dp1423
S'jc'
p1424
S'hhht'
p1425
sS'py'
p1426
g1422
sS'id'
p1427
S'1501'
p1428
sS'mc'
p1429
S'\xe5\x91\xbc\xe5\x92\x8c\xe6\xb5\xa9\xe7\x89\xb9'
p1430
sS'sl'
p1431
I13
ssS'panjin'
p1432
(dp1433
S'jc'
p1434
S'pj'
p1435
sS'py'
p1436
g1432
sS'id'
p1437
S'2111'
p1438
sS'mc'
p1439
S'\xe7\x9b\x98\xe9\x94\xa6'
p1440
sS'sl'
p1441
I5
ssS'linzhi'
p1442
(dp1443
S'jc'
p1444
S'lz'
p1445
sS'py'
p1446
g1442
sS'id'
p1447
S'542621'
p1448
sS'mc'
p1449
S'\xe6\x9e\x97\xe8\x8a\x9d'
p1450
sS'sl'
p1451
I1
ssS'foshan'
p1452
(dp1453
S'jc'
p1454
S'bs'
p1455
sS'py'
p1456
g1452
sS'id'
p1457
S'4406'
p1458
sS'mc'
p1459
S'\xe4\xbd\x9b\xe5\xb1\xb1'
p1460
sS'sl'
p1461
I7
ssS'pingduqingdao'
p1462
(dp1463
S'jc'
p1464
S'pd\xef\xbc\x88qd\xef\xbc\x89'
p1465
sS'py'
p1466
g1462
sS'id'
p1467
S'370283'
p1468
sS'mc'
p1469
S'\xe5\xb9\xb3\xe5\xba\xa6\xef\xbc\x88\xe9\x9d\x92\xe5\xb2\x9b\xef\xbc\x89'
p1470
sS'sl'
p1471
I1
ssS'shaoxing'
p1472
(dp1473
S'jc'
p1474
S'sx'
p1475
sS'py'
p1476
g1472
sS'id'
p1477
S'3306'
p1478
sS'mc'
p1479
S'\xe7\xbb\x8d\xe5\x85\xb4'
p1480
sS'sl'
p1481
I13
ssS'yanan'
p1482
(dp1483
S'jc'
p1484
S'ya'
p1485
sS'py'
p1486
g1482
sS'id'
p1487
S'6106'
p1488
sS'mc'
p1489
S'\xe5\xbb\xb6\xe5\xae\x89'
p1490
sS'sl'
p1491
I5
ssS'jingzhou'
p1492
(dp1493
S'jc'
p1494
S'jz'
p1495
sS'py'
p1496
g1492
sS'id'
p1497
S'4210'
p1498
sS'mc'
p1499
S'\xe8\x8d\x86\xe5\xb7\x9e'
p1500
sS'sl'
p1501
I3
ssS'funingyancheng'
p1502
(dp1503
S'jc'
p1504
S'fn(yc)'
p1505
sS'py'
p1506
g1502
sS'id'
p1507
S'320923'
p1508
sS'mc'
p1509
S'\xe9\x98\x9c\xe5\xae\x81(\xe7\x9b\x90\xe5\x9f\x8e)'
p1510
sS'sl'
p1511
I2
ssS'dingbianyulin'
p1512
(dp1513
S'jc'
p1514
S'db(yl)'
p1515
sS'py'
p1516
g1512
sS'id'
p1517
S'612726'
p1518
sS'mc'
p1519
S'\xe5\xae\x9a\xe8\xbe\xb9(\xe6\xa6\x86\xe6\x9e\x97)'
p1520
sS'sl'
p1521
I1
ssS'heze'
p1522
(dp1523
S'jc'
p1524
S'hz'
p1525
sS'py'
p1526
g1522
sS'id'
p1527
S'3729'
p1528
sS'mc'
p1529
S'\xe8\x8f\x8f\xe6\xb3\xbd'
p1530
sS'sl'
p1531
I6
ssS'tianjin'
p1532
(dp1533
S'jc'
p1534
S'tj'
p1535
sS'py'
p1536
g1532
sS'id'
p1537
S'1201'
p1538
sS'mc'
p1539
S'\xe5\xa4\xa9\xe6\xb4\xa5'
p1540
sS'sl'
p1541
I99
ssS'chaohu'
p1542
(dp1543
S'jc'
p1544
S'ch'
p1545
sS'py'
p1546
g1542
sS'id'
p1547
S'3416'
p1548
sS'mc'
p1549
S'\xe5\xb7\xa2\xe6\xb9\x96'
p1550
sS'sl'
p1551
I1
ssS'zhuanghedalian'
p1552
(dp1553
S'jc'
p1554
S'zh(dl)'
p1555
sS'py'
p1556
g1552
sS'id'
p1557
S'210283'
p1558
sS'mc'
p1559
S'\xe5\xba\x84\xe6\xb2\xb3(\xe5\xa4\xa7\xe8\xbf\x9e)'
p1560
sS'sl'
p1561
I1
ssS'fuyangshi'
p1562
(dp1563
S'jc'
p1564
S'fy'
p1565
sS'py'
p1566
g1562
sS'id'
p1567
S'3412'
p1568
sS'mc'
p1569
S'\xe9\x98\x9c\xe9\x98\xb3'
p1570
sS'sl'
p1571
I5
ssS'zhengding'
p1572
(dp1573
S'jc'
p1574
S'zd'
p1575
sS'py'
p1576
g1572
sS'id'
p1577
S'130123'
p1578
sS'mc'
p1579
S'\xe6\xad\xa3\xe5\xae\x9a'
p1580
sS'sl'
p1581
I1
ssS'nantong'
p1582
(dp1583
S'jc'
p1584
S'nt'
p1585
sS'py'
p1586
g1582
sS'id'
p1587
S'3206'
p1588
sS'mc'
p1589
S'\xe5\x8d\x97\xe9\x80\x9a'
p1590
sS'sl'
p1591
I30
ssS'tieling'
p1592
(dp1593
S'jc'
p1594
S'tl'
p1595
sS'py'
p1596
g1592
sS'id'
p1597
S'2112'
p1598
sS'mc'
p1599
S'\xe9\x93\x81\xe5\xb2\xad'
p1600
sS'sl'
p1601
I1
ssS'jiexiu'
p1602
(dp1603
S'jc'
p1604
S'jx'
p1605
sS'py'
p1606
g1602
sS'id'
p1607
S'140781'
p1608
sS'mc'
p1609
S'\xe4\xbb\x8b\xe4\xbc\x91'
p1610
sS'sl'
p1611
I2
ssS'qufujining'
p1612
(dp1613
S'jc'
p1614
S'qf(jn)'
p1615
sS'py'
p1616
g1612
sS'id'
p1617
S'370881'
p1618
sS'mc'
p1619
S'\xe6\x9b\xb2\xe9\x98\x9c(\xe6\xb5\x8e\xe5\xae\x81)'
p1620
sS'sl'
p1621
I4
ssS'haining'
p1622
(dp1623
S'jc'
p1624
S'hn'
p1625
sS'py'
p1626
g1622
sS'id'
p1627
S'330481'
p1628
sS'mc'
p1629
S'\xe6\xb5\xb7\xe5\xae\x81'
p1630
sS'sl'
p1631
I3
ssS'rikaze'
p1632
(dp1633
S'jc'
p1634
S'rkzs'
p1635
sS'py'
p1636
g1632
sS'id'
p1637
S'542301'
p1638
sS'mc'
p1639
S'\xe6\x97\xa5\xe5\x96\x80\xe5\x88\x99\xe5\xb8\x82'
p1640
sS'sl'
p1641
I1
ssS'zhumadian'
p1642
(dp1643
S'jc'
p1644
S'zmd'
p1645
sS'py'
p1646
g1642
sS'id'
p1647
S'412801'
p1648
sS'mc'
p1649
S'\xe9\xa9\xbb\xe9\xa9\xac\xe5\xba\x97'
p1650
sS'sl'
p1651
I1
ssS'fenghuang'
p1652
(dp1653
S'jc'
p1654
S'fh'
p1655
sS'py'
p1656
g1652
sS'id'
p1657
S'433123'
p1658
sS'mc'
p1659
S'\xe5\x87\xa4\xe5\x87\xb0'
p1660
sS'sl'
p1661
I0
ssS'huixianxinxiang'
p1662
(dp1663
S'jc'
p1664
S'hx(xx)'
p1665
sS'py'
p1666
g1662
sS'id'
p1667
S'410782'
p1668
sS'mc'
p1669
S'\xe8\xbe\x89\xe5\x8e\xbf(\xe6\x96\xb0\xe4\xb9\xa1)'
p1670
sS'sl'
p1671
I1
ssS'qianguo'
p1672
(dp1673
S'jc'
p1674
S'qg'
p1675
sS'py'
p1676
g1672
sS'id'
p1677
S'220721'
p1678
sS'mc'
p1679
S'\xe5\x89\x8d\xe9\x83\xad'
p1680
sS'sl'
p1681
I1
ssS'shuizhou'
p1682
(dp1683
S'jc'
p1684
S'sz'
p1685
sS'py'
p1686
g1682
sS'id'
p1687
S'4213'
p1688
sS'mc'
p1689
S'\xe9\x9a\x8f\xe5\xb7\x9e'
p1690
sS'sl'
p1691
I1
ssS'weifang'
p1692
(dp1693
S'jc'
p1694
S'wf'
p1695
sS'py'
p1696
g1692
sS'id'
p1697
S'3707'
p1698
sS'mc'
p1699
S'\xe6\xbd\x8d\xe5\x9d\x8a'
p1700
sS'sl'
p1701
I8
ssS'binzhou'
p1702
(dp1703
S'jc'
p1704
S'bz'
p1705
sS'py'
p1706
g1702
sS'id'
p1707
S'3723'
p1708
sS'mc'
p1709
S'\xe6\xbb\xa8\xe5\xb7\x9e'
p1710
sS'sl'
p1711
I4
ssS'guan'
p1712
(dp1713
S'jc'
p1714
S'ga'
p1715
sS'py'
p1716
g1712
sS'id'
p1717
S'131022'
p1718
sS'mc'
p1719
S'\xe5\x9b\xba\xe5\xae\x89'
p1720
sS'sl'
p1721
I1
ssS'shenyang'
p1722
(dp1723
S'jc'
p1724
S'sy'
p1725
sS'py'
p1726
g1722
sS'id'
p1727
S'2101'
p1728
sS'mc'
p1729
S'\xe6\xb2\x88\xe9\x98\xb3'
p1730
sS'sl'
p1731
I69
ssS'yunchengheze'
p1732
(dp1733
S'jc'
p1734
S'yc(hz)'
p1735
sS'py'
p1736
g1732
sS'id'
p1737
S'372928'
p1738
sS'mc'
p1739
S'\xe9\x83\x93\xe5\x9f\x8e(\xe8\x8f\x8f\xe6\xb3\xbd)'
p1740
sS'sl'
p1741
I1
ssS'zhuzhou'
p1742
(dp1743
S'jc'
p1744
S'zz'
p1745
sS'py'
p1746
g1742
sS'id'
p1747
S'4302'
p1748
sS'mc'
p1749
S'\xe6\xa0\xaa\xe6\xb4\xb2'
p1750
sS'sl'
p1751
I2
ssS'chongzuo'
p1752
(dp1753
S'jc'
p1754
S'cz'
p1755
sS'py'
p1756
g1752
sS'id'
p1757
S'451400'
p1758
sS'mc'
p1759
S'\xe5\xb4\x87\xe5\xb7\xa6'
p1760
sS'sl'
p1761
I0
ssS'jinghua'
p1762
(dp1763
S'jc'
p1764
S'jh'
p1765
sS'py'
p1766
g1762
sS'id'
p1767
S'3307'
p1768
sS'mc'
p1769
S'\xe9\x87\x91\xe5\x8d\x8e'
p1770
sS'sl'
p1771
I4
ssS'tongxiang'
p1772
(dp1773
S'jc'
p1774
S'tx'
p1775
sS'py'
p1776
g1772
sS'id'
p1777
S'330483'
p1778
sS'mc'
p1779
S'\xe6\xa1\x90\xe4\xb9\xa1'
p1780
sS'sl'
p1781
I2
ssS'zhenjiang'
p1782
(dp1783
S'jc'
p1784
S'zj'
p1785
sS'py'
p1786
g1782
sS'id'
p1787
S'3211'
p1788
sS'mc'
p1789
S'\xe9\x95\x87\xe6\xb1\x9f'
p1790
sS'sl'
p1791
I16
ssS'linqnigliaocheng'
p1792
(dp1793
S'jc'
p1794
S'lq(lc)'
p1795
sS'py'
p1796
g1792
sS'id'
p1797
S'371581'
p1798
sS'mc'
p1799
S'\xe4\xb8\xb4\xe6\xb8\x85(\xe8\x81\x8a\xe5\x9f\x8e)'
p1800
sS'sl'
p1801
I2
ssS'chongzhou'
p1802
(dp1803
S'jc'
p1804
S'cz'
p1805
sS'py'
p1806
g1802
sS'id'
p1807
S'510184'
p1808
sS'mc'
p1809
S'\xe5\xb4\x87\xe5\xb7\x9e'
p1810
sS'sl'
p1811
I1
ssS'taihuxian'
p1812
(dp1813
S'jc'
p1814
S'thx'
p1815
sS'py'
p1816
g1812
sS'id'
p1817
S'340825'
p1818
sS'mc'
p1819
S'\xe5\xa4\xaa\xe6\xb9\x96\xe5\x8e\xbf'
p1820
sS'sl'
p1821
I1
ssS'xinglongxian'
p1822
(dp1823
S'jc'
p1824
S'xlx'
p1825
sS'py'
p1826
g1822
sS'id'
p1827
S'130822'
p1828
sS'mc'
p1829
S'\xe5\x85\xb4\xe9\x9a\x86\xe5\x8e\xbf'
p1830
sS'sl'
p1831
I1
ssS'lianyungang'
p1832
(dp1833
S'jc'
p1834
S'lyg'
p1835
sS'py'
p1836
g1832
sS'id'
p1837
S'3207'
p1838
sS'mc'
p1839
S'\xe8\xbf\x9e\xe4\xba\x91\xe6\xb8\xaf'
p1840
sS'sl'
p1841
I31
ssS'zhongshan'
p1842
(dp1843
S'jc'
p1844
S'zs'
p1845
sS'py'
p1846
g1842
sS'id'
p1847
S'440620'
p1848
sS'mc'
p1849
S'\xe4\xb8\xad\xe5\xb1\xb1'
p1850
sS'sl'
p1851
I5
ssS'lvliang'
p1852
(dp1853
S'jc'
p1854
S'll'
p1855
sS'py'
p1856
g1852
sS'id'
p1857
S'1423'
p1858
sS'mc'
p1859
S'\xe5\x90\x95\xe6\xa2\x81'
p1860
sS'sl'
p1861
I2
ssS'zhangbeixian'
p1862
(dp1863
S'jc'
p1864
S'zbx'
p1865
sS'py'
p1866
g1862
sS'id'
p1867
S'130722'
p1868
sS'mc'
p1869
S'\xe5\xbc\xa0\xe5\x8c\x97\xe5\x8e\xbf'
p1870
sS'sl'
p1871
I1
ssS'liaocheng'
p1872
(dp1873
S'jc'
p1874
S'lc'
p1875
sS'py'
p1876
g1872
sS'id'
p1877
S'3715'
p1878
sS'mc'
p1879
S'\xe8\x81\x8a\xe5\x9f\x8e'
p1880
sS'sl'
p1881
I4
ssS'yichun'
p1882
(dp1883
S'jc'
p1884
S'yc'
p1885
sS'py'
p1886
g1882
sS'id'
p1887
S'3622'
p1888
sS'mc'
p1889
S'\xe5\xae\x9c\xe6\x98\xa5'
p1890
sS'sl'
p1891
I2
ssS'baizhou'
p1892
(dp1893
S'jc'
p1894
S'bz'
p1895
sS'py'
p1896
g1892
sS'id'
p1897
S'131081'
p1898
sS'mc'
p1899
S'\xe9\x9c\xb8\xe5\xb7\x9e'
p1900
sS'sl'
p1901
I2
ssS'jiangyin'
p1902
(dp1903
S'jc'
p1904
S'jy'
p1905
sS'py'
p1906
g1902
sS'id'
p1907
S'320281'
p1908
sS'mc'
p1909
S'\xe6\xb1\x9f\xe9\x98\xb4'
p1910
sS'sl'
p1911
I11
ssS'taizhou'
p1912
(dp1913
S'jc'
p1914
S'tz'
p1915
sS'py'
p1916
g1912
sS'id'
p1917
S'3212'
p1918
sS'mc'
p1919
S'\xe6\xb3\xb0\xe5\xb7\x9e'
p1920
sS'sl'
p1921
I11
ssS'jingdezhen'
p1922
(dp1923
S'jc'
p1924
S'jdz'
p1925
sS'py'
p1926
g1922
sS'id'
p1927
S'3602'
p1928
sS'mc'
p1929
S'\xe6\x99\xaf\xe5\xbe\xb7\xe9\x95\x87'
p1930
sS'sl'
p1931
I6
ssS'taishan\xef\xbc\x88jiangmen)'
p1932
(dp1933
S'jc'
p1934
S'ts\xef\xbc\x88jm\xef\xbc\x89'
p1935
sS'py'
p1936
g1932
sS'id'
p1937
S'440781'
p1938
sS'mc'
p1939
S'\xe5\x8f\xb0\xe5\xb1\xb1\xef\xbc\x88\xe6\xb1\x9f\xe9\x97\xa8\xef\xbc\x89'
p1940
sS'sl'
p1941
I0
ssS'jincheng'
p1942
(dp1943
S'jc'
p1944
S'jc'
p1945
sS'py'
p1946
g1942
sS'id'
p1947
S'1405'
p1948
sS'mc'
p1949
S'\xe6\x99\x8b\xe5\x9f\x8e'
p1950
sS'sl'
p1951
I1
ssS'xinjian'
p1952
(dp1953
S'jc'
p1954
S'xj'
p1955
sS'py'
p1956
g1952
sS'id'
p1957
S'360122'
p1958
sS'mc'
p1959
S'\xe6\x96\xb0\xe5\xbb\xba'
p1960
sS'sl'
p1961
I5
ssS'ningbo'
p1962
(dp1963
S'jc'
p1964
S'nb'
p1965
sS'py'
p1966
g1962
sS'id'
p1967
S'3302'
p1968
sS'mc'
p1969
S'\xe5\xae\x81\xe6\xb3\xa2'
p1970
sS'sl'
p1971
I36
ssS'nanping'
p1972
(dp1973
S'jc'
p1974
S'nps'
p1975
sS'py'
p1976
g1972
sS'id'
p1977
S'3507'
p1978
sS'mc'
p1979
S'\xe5\x8d\x97\xe5\xb9\xb3\xe5\xb8\x82'
p1980
sS'sl'
p1981
I0
ssS'dalian'
p1982
(dp1983
S'jc'
p1984
S'dl'
p1985
sS'py'
p1986
g1982
sS'id'
p1987
S'2102'
p1988
sS'mc'
p1989
S'\xe5\xa4\xa7\xe8\xbf\x9e'
p1990
sS'sl'
p1991
I59
ssS'zhalantunhulunbeier'
p1992
(dp1993
S'jc'
p1994
S'zlt(hlbes)'
p1995
sS'py'
p1996
g1992
sS'id'
p1997
S'150783'
p1998
sS'mc'
p1999
S'\xe6\x89\x8e\xe5\x85\xb0\xe5\xb1\xaf(\xe5\x91\xbc\xe4\xbc\xa6\xe8\xb4\x9d\xe5\xb0\x94\xe5\xb8\x82)'
p2000
sS'sl'
p2001
I1
ssS'shengzhou'
p2002
(dp2003
S'jc'
p2004
S'sz'
p2005
sS'py'
p2006
g2002
sS'id'
p2007
S'330683'
p2008
sS'mc'
p2009
S'\xe5\xb5\x8a\xe5\xb7\x9e'
p2010
sS'sl'
p2011
I1
ssS'fenghuaningbo'
p2012
(dp2013
S'jc'
p2014
S'fh(nb)'
p2015
sS'py'
p2016
g2012
sS'id'
p2017
S'330283'
p2018
sS'mc'
p2019
S'\xe5\xa5\x89\xe5\x8c\x96(\xe5\xae\x81\xe6\xb3\xa2)'
p2020
sS'sl'
p2021
I1
ssS'jiuzhaigouabazhou'
p2022
(dp2023
S'jc'
p2024
S'jzg(abz)'
p2025
sS'py'
p2026
g2022
sS'id'
p2027
S'513225'
p2028
sS'mc'
p2029
S'\xe4\xb9\x9d\xe5\xaf\xa8\xe6\xb2\x9f(\xe9\x98\xbf\xe5\x9d\x9d\xe5\xb7\x9e)'
p2030
sS'sl'
p2031
I3
ssS'yingkou'
p2032
(dp2033
S'jc'
p2034
S'yk'
p2035
sS'py'
p2036
g2032
sS'id'
p2037
S'2108'
p2038
sS'mc'
p2039
S'\xe8\x90\xa5\xe5\x8f\xa3'
p2040
sS'sl'
p2041
I3
ssS'binhaiyancheng'
p2042
(dp2043
S'jc'
p2044
S'bh(yc)'
p2045
sS'py'
p2046
g2042
sS'id'
p2047
S'320922'
p2048
sS'mc'
p2049
S'\xe6\xbb\xa8\xe6\xb5\xb7(\xe7\x9b\x90\xe5\x9f\x8e)'
p2050
sS'sl'
p2051
I2
ssS'funan'
p2052
(dp2053
S'jc'
p2054
S'fn'
p2055
sS'py'
p2056
g2052
sS'id'
p2057
S'341225'
p2058
sS'mc'
p2059
S'\xe9\x98\x9c\xe5\x8d\x97'
p2060
sS'sl'
p2061
I1
ssS'taixing'
p2062
(dp2063
S'jc'
p2064
S'tx'
p2065
sS'py'
p2066
g2062
sS'id'
p2067
S'321283'
p2068
sS'mc'
p2069
S'\xe6\xb3\xb0\xe5\x85\xb4'
p2070
sS'sl'
p2071
I3
ssS'jiaozhouqingdao'
p2072
(dp2073
S'jc'
p2074
S'jz(qd)'
p2075
sS'py'
p2076
g2072
sS'id'
p2077
S'370281'
p2078
sS'mc'
p2079
S'\xe8\x83\xb6\xe5\xb7\x9e(\xe9\x9d\x92\xe5\xb2\x9b)'
p2080
sS'sl'
p2081
I2
ssS'shunde'
p2082
(dp2083
S'jc'
p2084
S'sd'
p2085
sS'py'
p2086
g2082
sS'id'
p2087
S'4460'
p2088
sS'mc'
p2089
S'\xe9\xa1\xba\xe5\xbe\xb7'
p2090
sS'sl'
p2091
I0
ssS'caoxian'
p2092
(dp2093
S'jc'
p2094
S'cx(hz)'
p2095
sS'py'
p2096
g2092
sS'id'
p2097
S'372922'
p2098
sS'mc'
p2099
S'\xe6\x9b\xb9\xe5\x8e\xbf(\xe8\x8f\x8f\xe6\xb3\xbd)'
p2100
sS'sl'
p2101
I1
ssS'tangshan'
p2102
(dp2103
S'jc'
p2104
S'ts'
p2105
sS'py'
p2106
g2102
sS'id'
p2107
S'1302'
p2108
sS'mc'
p2109
S'\xe5\x94\x90\xe5\xb1\xb1'
p2110
sS'sl'
p2111
I13
ssS'boertalazhou'
p2112
(dp2113
S'jc'
p2114
S'cjz'
p2115
sS'py'
p2116
g2112
sS'id'
p2117
S'652300'
p2118
sS'mc'
p2119
S'\xe6\x98\x8c\xe5\x90\x89\xe5\xb7\x9e'
p2120
sS'sl'
p2121
I1
ssS'wuyishan'
p2122
(dp2123
S'jc'
p2124
S'wys'
p2125
sS'py'
p2126
g2122
sS'id'
p2127
S'350782'
p2128
sS'mc'
p2129
S'\xe6\xad\xa6\xe5\xa4\xb7\xe5\xb1\xb1'
p2130
sS'sl'
p2131
I1
ssS'chunanqiandaohu'
p2132
(dp2133
S'jc'
p2134
S'(qdh)ca'
p2135
sS'py'
p2136
g2132
sS'id'
p2137
S'330127'
p2138
sS'mc'
p2139
S'(\xe5\x8d\x83\xe5\xb2\x9b\xe6\xb9\x96)\xe6\xb7\xb3\xe5\xae\x89'
p2140
sS'sl'
p2141
I3
ssS'yantai'
p2142
(dp2143
S'jc'
p2144
S'yt'
p2145
sS'py'
p2146
g2142
sS'id'
p2147
S'3706'
p2148
sS'mc'
p2149
S'\xe7\x83\x9f\xe5\x8f\xb0'
p2150
sS'sl'
p2151
I28
ssS'kaili'
p2152
(dp2153
S'jc'
p2154
S'kl'
p2155
sS'py'
p2156
g2152
sS'id'
p2157
S'522601'
p2158
sS'mc'
p2159
S'\xe5\x87\xaf\xe9\x87\x8c'
p2160
sS'sl'
p2161
I1
ssS'quanzhou'
p2162
(dp2163
S'jc'
p2164
S'qz'
p2165
sS'py'
p2166
g2162
sS'id'
p2167
S'3505'
p2168
sS'mc'
p2169
S'\xe6\xb3\x89\xe5\xb7\x9e'
p2170
sS'sl'
p2171
I6
ssS'huludao'
p2172
(dp2173
S'jc'
p2174
S'hld'
p2175
sS'py'
p2176
g2172
sS'id'
p2177
S'2114'
p2178
sS'mc'
p2179
S'\xe8\x91\xab\xe8\x8a\xa6\xe5\xb2\x9b'
p2180
sS'sl'
p2181
I5
ssS'chifeng'
p2182
(dp2183
S'jc'
p2184
S'cf'
p2185
sS'py'
p2186
g2182
sS'id'
p2187
S'1504'
p2188
sS'mc'
p2189
S'\xe8\xb5\xa4\xe5\xb3\xb0'
p2190
sS'sl'
p2191
I7
ssS'chuzhou'
p2192
(dp2193
S'jc'
p2194
S'cz'
p2195
sS'py'
p2196
g2192
sS'id'
p2197
S'3411'
p2198
sS'mc'
p2199
S'\xe6\xbb\x81\xe5\xb7\x9e'
p2200
sS'sl'
p2201
I4
ssS'fengxianxuzhou'
p2202
(dp2203
S'jc'
p2204
S'fx(xz)'
p2205
sS'py'
p2206
g2202
sS'id'
p2207
S'320321'
p2208
sS'mc'
p2209
S'\xe4\xb8\xb0\xe5\x8e\xbf(\xe5\xbe\x90\xe5\xb7\x9e)'
p2210
sS'sl'
p2211
I1
ssS'haikou'
p2212
(dp2213
S'jc'
p2214
S'hk'
p2215
sS'py'
p2216
g2212
sS'id'
p2217
S'4601'
p2218
sS'mc'
p2219
S'\xe6\xb5\xb7\xe5\x8f\xa3'
p2220
sS'sl'
p2221
I7
ssS'zhaoqing'
p2222
(dp2223
S'jc'
p2224
S'zq'
p2225
sS'py'
p2226
g2222
sS'id'
p2227
S'4412'
p2228
sS'mc'
p2229
S'\xe8\x82\x87\xe5\xba\x86'
p2230
sS'sl'
p2231
I2
ssS'rongchengweihai'
p2232
(dp2233
S'jc'
p2234
S'rc(wh)'
p2235
sS'py'
p2236
g2232
sS'id'
p2237
S'371082'
p2238
sS'mc'
p2239
S'\xe8\x8d\xa3\xe6\x88\x90(\xe5\xa8\x81\xe6\xb5\xb7)'
p2240
sS'sl'
p2241
I2
ssS'lnwfdsdalian'
p2242
(dp2243
S'jc'
p2244
S'wfd(dl)'
p2245
sS'py'
p2246
g2242
sS'id'
p2247
S'210281'
p2248
sS'mc'
p2249
S'\xe7\x93\xa6\xe6\x88\xbf\xe5\xba\x97(\xe5\xa4\xa7\xe8\xbf\x9e)'
p2250
sS'sl'
p2251
I1
ssS'xinxiang'
p2252
(dp2253
S'jc'
p2254
S'xx'
p2255
sS'py'
p2256
g2252
sS'id'
p2257
S'4107'
p2258
sS'mc'
p2259
S'\xe6\x96\xb0\xe4\xb9\xa1'
p2260
sS'sl'
p2261
I3
ssS'cixi'
p2262
(dp2263
S'jc'
p2264
S'cx'
p2265
sS'py'
p2266
g2262
sS'id'
p2267
S'330222'
p2268
sS'mc'
p2269
S'\xe6\x85\x88\xe6\xba\xaa'
p2270
sS'sl'
p2271
I2
ssS'renshouxian'
p2272
(dp2273
S'jc'
p2274
S'rsx'
p2275
sS'py'
p2276
g2272
sS'id'
p2277
S'513822'
p2278
sS'mc'
p2279
S'\xe4\xbb\x81\xe5\xaf\xbf\xe5\x8e\xbf'
p2280
sS'sl'
p2281
I1
ssS'yinchuan'
p2282
(dp2283
S'jc'
p2284
S'yc'
p2285
sS'py'
p2286
g2282
sS'id'
p2287
S'6401'
p2288
sS'mc'
p2289
S'\xe9\x93\xb6\xe5\xb7\x9d'
p2290
sS'sl'
p2291
I18
ssS'shaoguan'
p2292
(dp2293
S'jc'
p2294
S'sg'
p2295
sS'py'
p2296
g2292
sS'id'
p2297
S'4402'
p2298
sS'mc'
p2299
S'\xe9\x9f\xb6\xe5\x85\xb3'
p2300
sS'sl'
p2301
I2
ssS'jingjiang'
p2302
(dp2303
S'jc'
p2304
S'jj'
p2305
sS'py'
p2306
g2302
sS'id'
p2307
S'321282'
p2308
sS'mc'
p2309
S'\xe9\x9d\x96\xe6\xb1\x9f'
p2310
sS'sl'
p2311
I2
ssS'mingguang'
p2312
(dp2313
S'jc'
p2314
S'mg'
p2315
sS'py'
p2316
g2312
sS'id'
p2317
S'341182'
p2318
sS'mc'
p2319
S'\xe6\x98\x8e\xe5\x85\x89'
p2320
sS'sl'
p2321
I1
ssS'huainan'
p2322
(dp2323
S'jc'
p2324
S'hn'
p2325
sS'py'
p2326
g2322
sS'id'
p2327
S'3404'
p2328
sS'mc'
p2329
S'\xe6\xb7\xae\xe5\x8d\x97'
p2330
sS'sl'
p2331
I2
ssS'liuyang'
p2332
(dp2333
S'jc'
p2334
S'ly'
p2335
sS'py'
p2336
g2332
sS'id'
p2337
S'430181'
p2338
sS'mc'
p2339
S'\xe6\xb5\x8f\xe9\x98\xb3'
p2340
sS'sl'
p2341
I1
ssS'yongqinglangfang'
p2342
(dp2343
S'jc'
p2344
S'yq(lf)'
p2345
sS'py'
p2346
g2342
sS'id'
p2347
S'131023'
p2348
sS'mc'
p2349
S'\xe6\xb0\xb8\xe6\xb8\x85(\xe5\xbb\x8a\xe5\x9d\x8a)'
p2350
sS'sl'
p2351
I1
ssS'yixing'
p2352
(dp2353
S'jc'
p2354
S'yx'
p2355
sS'py'
p2356
g2352
sS'id'
p2357
S'320282'
p2358
sS'mc'
p2359
S'\xe5\xae\x9c\xe5\x85\xb4'
p2360
sS'sl'
p2361
I4
ssS'yangxinbinzhou'
p2362
(dp2363
S'jc'
p2364
S'yx(bz)'
p2365
sS'py'
p2366
g2362
sS'id'
p2367
S'372323'
p2368
sS'mc'
p2369
S'\xe9\x98\xb3\xe4\xbf\xa1(\xe6\xbb\xa8\xe5\xb7\x9e)'
p2370
sS'sl'
p2371
I1
ssS'guanghan'
p2372
(dp2373
S'jc'
p2374
S'gh'
p2375
sS'py'
p2376
g2372
sS'id'
p2377
S'510681'
p2378
sS'mc'
p2379
S'\xe5\xb9\xbf\xe6\xb1\x89'
p2380
sS'sl'
p2381
I1
ssS'dingxi'
p2382
(dp2383
S'jc'
p2384
S'ylz'
p2385
sS'py'
p2386
g2382
sS'id'
p2387
S'654000'
p2388
sS'mc'
p2389
S'\xe4\xbc\x8a\xe7\x8a\x81\xe5\xb7\x9e'
p2390
sS'sl'
p2391
I0
ssS'wuhu'
p2392
(dp2393
S'jc'
p2394
S'wh'
p2395
sS'py'
p2396
g2392
sS'id'
p2397
S'3402'
p2398
sS'mc'
p2399
S'\xe8\x8a\x9c\xe6\xb9\x96'
p2400
sS'sl'
p2401
I15
ssS'anjihuzhou'
p2402
(dp2403
S'jc'
p2404
S'aj(hz)'
p2405
sS'py'
p2406
g2402
sS'id'
p2407
S'330523'
p2408
sS'mc'
p2409
S'\xe5\xae\x89\xe5\x90\x89(\xe6\xb9\x96\xe5\xb7\x9e)'
p2410
sS'sl'
p2411
I2
ssS'siping'
p2412
(dp2413
S'jc'
p2414
S'sp'
p2415
sS'py'
p2416
g2412
sS'id'
p2417
S'2203'
p2418
sS'mc'
p2419
S'\xe5\x9b\x9b\xe5\xb9\xb3'
p2420
sS'sl'
p2421
I1
ssS'deyang'
p2422
(dp2423
S'jc'
p2424
S'dy'
p2425
sS'py'
p2426
g2422
sS'id'
p2427
S'5106'
p2428
sS'mc'
p2429
S'\xe5\xbe\xb7\xe9\x98\xb3'
p2430
sS'sl'
p2431
I0
ssS'fanchangxian'
p2432
(dp2433
S'jc'
p2434
S'fcx'
p2435
sS'py'
p2436
g2432
sS'id'
p2437
S'340222'
p2438
sS'mc'
p2439
S'\xe7\xb9\x81\xe6\x98\x8c\xe5\x8e\xbf'
p2440
sS'sl'
p2441
I1
ssS'jiamusi'
p2442
(dp2443
S'jc'
p2444
S'jms'
p2445
sS'py'
p2446
g2442
sS'id'
p2447
S'2308'
p2448
sS'mc'
p2449
S'\xe4\xbd\xb3\xe6\x9c\xa8\xe6\x96\xaf'
p2450
sS'sl'
p2451
I4
ssS'xinghua'
p2452
(dp2453
S'jc'
p2454
S'xh'
p2455
sS'py'
p2456
g2452
sS'id'
p2457
S'321281'
p2458
sS'mc'
p2459
S'\xe5\x85\xb4\xe5\x8c\x96'
p2460
sS'sl'
p2461
I2
ssS'xiamen'
p2462
(dp2463
S'jc'
p2464
S'sm'
p2465
sS'py'
p2466
g2462
sS'id'
p2467
S'3502'
p2468
sS'mc'
p2469
S'\xe5\x8e\xa6\xe9\x97\xa8'
p2470
sS'sl'
p2471
I44
ssS'weihai'
p2472
(dp2473
S'jc'
p2474
S'wh'
p2475
sS'py'
p2476
g2472
sS'id'
p2477
S'3710'
p2478
sS'mc'
p2479
S'\xe5\xa8\x81\xe6\xb5\xb7'
p2480
sS'sl'
p2481
I14
ssS'jiaozuo'
p2482
(dp2483
S'jc'
p2484
S'jz'
p2485
sS'py'
p2486
g2482
sS'id'
p2487
S'4108'
p2488
sS'mc'
p2489
S'\xe7\x84\xa6\xe4\xbd\x9c'
p2490
sS'sl'
p2491
I3
ssS'hangzhou'
p2492
(dp2493
S'jc'
p2494
S'hz'
p2495
sS'py'
p2496
g2492
sS'id'
p2497
S'3301'
p2498
sS'mc'
p2499
S'\xe6\x9d\xad\xe5\xb7\x9e'
p2500
sS'sl'
p2501
I169
ssS'donghailianyungan'
p2502
(dp2503
S'jc'
p2504
S'dh(lyg)'
p2505
sS'py'
p2506
g2502
sS'id'
p2507
S'320722'
p2508
sS'mc'
p2509
S'\xe4\xb8\x9c\xe6\xb5\xb7(\xe8\xbf\x9e\xe4\xba\x91\xe6\xb8\xaf)'
p2510
sS'sl'
p2511
I2
ssS'zhangjiajie'
p2512
(dp2513
S'jc'
p2514
S'zjj'
p2515
sS'py'
p2516
g2512
sS'id'
p2517
S'4308'
p2518
sS'mc'
p2519
S'\xe5\xbc\xa0\xe5\xae\xb6\xe7\x95\x8c'
p2520
sS'sl'
p2521
I8
ssS'bengbu'
p2522
(dp2523
S'jc'
p2524
S'bb'
p2525
sS'py'
p2526
g2522
sS'id'
p2527
S'3403'
p2528
sS'mc'
p2529
S'\xe8\x9a\x8c\xe5\x9f\xa0'
p2530
sS'sl'
p2531
I10
ssS'yangquan'
p2532
(dp2533
S'jc'
p2534
S'yq'
p2535
sS'py'
p2536
g2532
sS'id'
p2537
S'1403'
p2538
sS'mc'
p2539
S'\xe9\x98\xb3\xe6\xb3\x89'
p2540
sS'sl'
p2541
I1
ssS'xijiguyuan'
p2542
(dp2543
S'jc'
p2544
S'xj(gy)'
p2545
sS'py'
p2546
g2542
sS'id'
p2547
S'640423'
p2548
sS'mc'
p2549
S'\xe8\xa5\xbf\xe5\x90\x89(\xe5\x9b\xba\xe5\x8e\x9f)'
p2550
sS'sl'
p2551
I1
ssS'yangzhong'
p2552
(dp2553
S'jc'
p2554
S'yz'
p2555
sS'py'
p2556
g2552
sS'id'
p2557
S'321182'
p2558
sS'mc'
p2559
S'\xe6\x89\xac\xe4\xb8\xad'
p2560
sS'sl'
p2561
I3
ssS'shuozhou'
p2562
(dp2563
S'jc'
p2564
S'sz'
p2565
sS'py'
p2566
g2562
sS'id'
p2567
S'1406'
p2568
sS'mc'
p2569
S'\xe6\x9c\x94\xe5\xb7\x9e'
p2570
sS'sl'
p2571
I0
ssS'haiyan'
p2572
(dp2573
S'jc'
p2574
S'hy'
p2575
sS'py'
p2576
g2572
sS'id'
p2577
S'330424'
p2578
sS'mc'
p2579
S'\xe6\xb5\xb7\xe7\x9b\x90'
p2580
sS'sl'
p2581
I2
ssS'aershan'
p2582
(dp2583
S'jc'
p2584
S'aes'
p2585
sS'py'
p2586
g2582
sS'id'
p2587
S'152202'
p2588
sS'mc'
p2589
S'\xe9\x98\xbf\xe5\xb0\x94\xe5\xb1\xb1'
p2590
sS'sl'
p2591
I1
ssS'tulufan'
p2592
(dp2593
S'jc'
p2594
S'tlf'
p2595
sS'py'
p2596
g2592
sS'id'
p2597
S'652101'
p2598
sS'mc'
p2599
S'\xe5\x90\x90\xe9\xb2\x81\xe7\x95\xaa'
p2600
sS'sl'
p2601
I2
ssS'siyangsuqian'
p2602
(dp2603
S'jc'
p2604
S'sy(xq)'
p2605
sS'py'
p2606
g2602
sS'id'
p2607
S'321323'
p2608
sS'mc'
p2609
S'\xe6\xb3\x97\xe9\x98\xb3(\xe5\xae\xbf\xe8\xbf\x81)'
p2610
sS'sl'
p2611
I1
ssS'fuzhouou'
p2612
(dp2613
S'jc'
p2614
S'fz'
p2615
sS'py'
p2616
g2612
sS'id'
p2617
S'3625'
p2618
sS'mc'
p2619
S'\xe6\x8a\x9a\xe5\xb7\x9e'
p2620
sS'sl'
p2621
I1
ssS'guangraodongying'
p2622
(dp2623
S'jc'
p2624
S'gr(dy)'
p2625
sS'py'
p2626
g2622
sS'id'
p2627
S'370523'
p2628
sS'mc'
p2629
S'\xe5\xb9\xbf\xe9\xa5\xb6(\xe4\xb8\x9c\xe8\x90\xa5)'
p2630
sS'sl'
p2631
I1
ssS'huizhouishi'
p2632
(dp2633
S'jc'
p2634
S'hz'
p2635
sS'py'
p2636
g2632
sS'id'
p2637
S'4413'
p2638
sS'mc'
p2639
S'\xe6\x83\xa0\xe5\xb7\x9e'
p2640
sS'sl'
p2641
I3
ssS'kuerle'
p2642
(dp2643
S'jc'
p2644
S'kel'
p2645
sS'py'
p2646
g2642
sS'id'
p2647
S'652801'
p2648
sS'mc'
p2649
S'\xe5\xba\x93\xe5\xb0\x94\xe5\x8b\x92'
p2650
sS'sl'
p2651
I1
ssS'dongguan'
p2652
(dp2653
S'jc'
p2654
S'dg'
p2655
sS'py'
p2656
g2652
sS'id'
p2657
S'4419'
p2658
sS'mc'
p2659
S'\xe4\xb8\x9c\xe8\x8e\x9e'
p2660
sS'sl'
p2661
I5
ssS'shouguangweifang'
p2662
(dp2663
S'jc'
p2664
S'sg(wf)'
p2665
sS'py'
p2666
g2662
sS'id'
p2667
S'370783'
p2668
sS'mc'
p2669
S'\xe5\xaf\xbf\xe5\x85\x89(\xe6\xbd\x8d\xe5\x9d\x8a)'
p2670
sS'sl'
p2671
I3
ssS'yongning'
p2672
(dp2673
S'jc'
p2674
S'yn'
p2675
sS'py'
p2676
g2672
sS'id'
p2677
S'640121'
p2678
sS'mc'
p2679
S'\xe6\xb0\xb8\xe5\xae\x81'
p2680
sS'sl'
p2681
I1
ssS'tiantai'
p2682
(dp2683
S'jc'
p2684
S'tt'
p2685
sS'py'
p2686
g2682
sS'id'
p2687
S'331023'
p2688
sS'mc'
p2689
S'\xe5\xa4\xa9\xe5\x8f\xb0'
p2690
sS'sl'
p2691
I1
ssS'qinhuangdao'
p2692
(dp2693
S'jc'
p2694
S'qhd'
p2695
sS'py'
p2696
g2692
sS'id'
p2697
S'1303'
p2698
sS'mc'
p2699
S'\xe7\xa7\xa6\xe7\x9a\x87\xe5\xb2\x9b'
p2700
sS'sl'
p2701
I18
ssS'qionghai'
p2702
(dp2703
S'jc'
p2704
S'qhs'
p2705
sS'py'
p2706
g2702
sS'id'
p2707
S'469002'
p2708
sS'mc'
p2709
S'\xe7\x90\xbc\xe6\xb5\xb7\xe5\xb8\x82'
p2710
sS'sl'
p2711
I1
ssS'jiangmen'
p2712
(dp2713
S'jc'
p2714
S'jm'
p2715
sS'py'
p2716
g2712
sS'id'
p2717
S'4407'
p2718
sS'mc'
p2719
S'\xe6\xb1\x9f\xe9\x97\xa8'
p2720
sS'sl'
p2721
I0
ssS'lepingshi'
p2722
(dp2723
S'jc'
p2724
S'lps'
p2725
sS'py'
p2726
g2722
sS'id'
p2727
S'360281'
p2728
sS'mc'
p2729
S'\xe4\xb9\x90\xe5\xb9\xb3\xe5\xb8\x82'
p2730
sS'sl'
p2731
I1
ssS'xining'
p2732
(dp2733
S'jc'
p2734
S'xn'
p2735
sS'py'
p2736
g2732
sS'id'
p2737
S'6301'
p2738
sS'mc'
p2739
S'\xe8\xa5\xbf\xe5\xae\x81'
p2740
sS'sl'
p2741
I23
ssS'hefei'
p2742
(dp2743
S'jc'
p2744
S'hf'
p2745
sS'py'
p2746
g2742
sS'id'
p2747
S'3401'
p2748
sS'mc'
p2749
S'\xe5\x90\x88\xe8\x82\xa5'
p2750
sS'sl'
p2751
I45
ssS'weinanshi'
p2752
(dp2753
S'jc'
p2754
S'wn'
p2755
sS'py'
p2756
g2752
sS'id'
p2757
S'612101'
p2758
sS'mc'
p2759
S'\xe6\xb8\xad\xe5\x8d\x97'
p2760
sS'sl'
p2761
I2
ssS'leshan'
p2762
(dp2763
S'jc'
p2764
S'ls'
p2765
sS'py'
p2766
g2762
sS'id'
p2767
S'5111'
p2768
sS'mc'
p2769
S'\xe4\xb9\x90\xe5\xb1\xb1'
p2770
sS'sl'
p2771
I6
ssS'xuzhou'
p2772
(dp2773
S'jc'
p2774
S'xz'
p2775
sS'py'
p2776
g2772
sS'id'
p2777
S'3203'
p2778
sS'mc'
p2779
S'\xe5\xbe\x90\xe5\xb7\x9e'
p2780
sS'sl'
p2781
I33
ssS'jiayuguan'
p2782
(dp2783
S'jc'
p2784
S'jyg'
p2785
sS'py'
p2786
g2782
sS'id'
p2787
S'6202'
p2788
sS'mc'
p2789
S'\xe5\x98\x89\xe5\xb3\xaa\xe5\x85\xb3'
p2790
sS'sl'
p2791
I7
ssS'cangzhou'
p2792
(dp2793
S'jc'
p2794
S'cz'
p2795
sS'py'
p2796
g2792
sS'id'
p2797
S'1309'
p2798
sS'mc'
p2799
S'\xe6\xb2\xa7\xe5\xb7\x9e'
p2800
sS'sl'
p2801
I11
ssS'zigong'
p2802
(dp2803
S'jc'
p2804
S'zg'
p2805
sS'py'
p2806
g2802
sS'id'
p2807
S'5103'
p2808
sS'mc'
p2809
S'\xe8\x87\xaa\xe8\xb4\xa1'
p2810
sS'sl'
p2811
I1
ssS'lasa'
p2812
(dp2813
S'jc'
p2814
S'ls'
p2815
sS'py'
p2816
g2812
sS'id'
p2817
S'5401'
p2818
sS'mc'
p2819
S'\xe6\x8b\x89\xe8\x90\xa8'
p2820
sS'sl'
p2821
I10
ssS'kuandianxian'
p2822
(dp2823
S'jc'
p2824
S'kdx'
p2825
sS'py'
p2826
g2822
sS'id'
p2827
S'210624'
p2828
sS'mc'
p2829
S'\xe5\xae\xbd\xe7\x94\xb8\xe5\x8e\xbf'
p2830
sS'sl'
p2831
I1
ssS'xianning'
p2832
(dp2833
S'jc'
p2834
S'xn'
p2835
sS'py'
p2836
g2832
sS'id'
p2837
S'4212'
p2838
sS'mc'
p2839
S'\xe5\x92\xb8\xe5\xae\x81'
p2840
sS'sl'
p2841
I1
ssS'xiangtan'
p2842
(dp2843
S'jc'
p2844
S'xt'
p2845
sS'py'
p2846
g2842
sS'id'
p2847
S'4303'
p2848
sS'mc'
p2849
S'\xe6\xb9\x98\xe6\xbd\xad'
p2850
sS'sl'
p2851
I2
ssS'kuanchengxian'
p2852
(dp2853
S'jc'
p2854
S'kcx'
p2855
sS'py'
p2856
g2852
sS'id'
p2857
S'130827'
p2858
sS'mc'
p2859
S'\xe5\xae\xbd\xe5\x9f\x8e\xe5\x8e\xbf'
p2860
sS'sl'
p2861
I1
ssS'jinan'
p2862
(dp2863
S'jc'
p2864
S'jn'
p2865
sS'py'
p2866
g2862
sS'id'
p2867
S'3701'
p2868
sS'mc'
p2869
S'\xe6\xb5\x8e\xe5\x8d\x97'
p2870
sS'sl'
p2871
I64
ssS'meishan'
p2872
(dp2873
S'jc'
p2874
S'ms'
p2875
sS'py'
p2876
g2872
sS'id'
p2877
S'5138'
p2878
sS'mc'
p2879
S'\xe7\x9c\x89\xe5\xb1\xb1'
p2880
sS'sl'
p2881
I1
ssS'xianyouxian'
p2882
(dp2883
S'jc'
p2884
S'xyx'
p2885
sS'py'
p2886
g2882
sS'id'
p2887
S'350322'
p2888
sS'mc'
p2889
S'\xe4\xbb\x99\xe6\xb8\xb8\xe5\x8e\xbf'
p2890
sS'sl'
p2891
I1
ssS'gaomi'
p2892
(dp2893
S'jc'
p2894
S'gm'
p2895
sS'py'
p2896
g2892
sS'id'
p2897
S'370785'
p2898
sS'mc'
p2899
S'\xe9\xab\x98\xe5\xaf\x86'
p2900
sS'sl'
p2901
I1
ssS'zaozhuang'
p2902
(dp2903
S'jc'
p2904
S'zz'
p2905
sS'py'
p2906
g2902
sS'id'
p2907
S'3704'
p2908
sS'mc'
p2909
S'\xe6\x9e\xa3\xe5\xba\x84'
p2910
sS'sl'
p2911
I5
ssS'yaan'
p2912
(dp2913
S'jc'
p2914
S'ya'
p2915
sS'py'
p2916
g2912
sS'id'
p2917
S'511800'
p2918
sS'mc'
p2919
S'\xe9\x9b\x85\xe5\xae\x89'
p2920
sS'sl'
p2921
I1
ssS'taian'
p2922
(dp2923
S'jc'
p2924
S'ta'
p2925
sS'py'
p2926
g2922
sS'id'
p2927
S'3709'
p2928
sS'mc'
p2929
S'\xe6\xb3\xb0\xe5\xae\x89'
p2930
sS'sl'
p2931
I17
ssS'dashiqiao'
p2932
(dp2933
S'jc'
p2934
S'dsq'
p2935
sS'py'
p2936
g2932
sS'id'
p2937
S'210882'
p2938
sS'mc'
p2939
S'\xe5\xa4\xa7\xe7\x9f\xb3\xe6\xa1\xa5'
p2940
sS'sl'
p2941
I1
ssS'anping'
p2942
(dp2943
S'jc'
p2944
S'ap'
p2945
sS'py'
p2946
g2942
sS'id'
p2947
S'131125'
p2948
sS'mc'
p2949
S'\xe5\xae\x89\xe5\xb9\xb3'
p2950
sS'sl'
p2951
I1
ssS'abazhou'
p2952
(dp2953
S'jc'
p2954
S'abz'
p2955
sS'py'
p2956
g2952
sS'id'
p2957
S'5132'
p2958
sS'mc'
p2959
S'\xe9\x98\xbf\xe5\x9d\x9d\xe5\xb7\x9e'
p2960
sS'sl'
p2961
I3
ssS'tongchuan'
p2962
(dp2963
S'jc'
p2964
S'tc'
p2965
sS'py'
p2966
g2962
sS'id'
p2967
S'6102'
p2968
sS'mc'
p2969
S'\xe9\x93\x9c\xe5\xb7\x9d'
p2970
sS'sl'
p2971
I2
ssS'tengzhouzaozhuang'
p2972
(dp2973
S'jc'
p2974
S'tz(zz)'
p2975
sS'py'
p2976
g2972
sS'id'
p2977
S'370481'
p2978
sS'mc'
p2979
S'\xe6\xbb\x95\xe5\xb7\x9e(\xe6\x9e\xa3\xe5\xba\x84)'
p2980
sS'sl'
p2981
I2
ssS'guilin'
p2982
(dp2983
S'jc'
p2984
S'gl'
p2985
sS'py'
p2986
g2982
sS'id'
p2987
S'4503'
p2988
sS'mc'
p2989
S'\xe6\xa1\x82\xe6\x9e\x97'
p2990
sS'sl'
p2991
I15
ssS'geermu'
p2992
(dp2993
S'jc'
p2994
S'gem'
p2995
sS'py'
p2996
g2992
sS'id'
p2997
S'632801'
p2998
sS'mc'
p2999
S'\xe6\xa0\xbc\xe5\xb0\x94\xe6\x9c\xa8'
p3000
sS'sl'
p3001
I4
ssS'xiapuningde'
p3002
(dp3003
S'jc'
p3004
S'xp(nd)'
p3005
sS'py'
p3006
g3002
sS'id'
p3007
S'350921'
p3008
sS'mc'
p3009
S'\xe9\x9c\x9e\xe6\xb5\xa6(\xe5\xae\x81\xe5\xbe\xb7)'
p3010
sS'sl'
p3011
I1
ssS'taicang'
p3012
(dp3013
S'jc'
p3014
S'tc'
p3015
sS'py'
p3016
g3012
sS'id'
p3017
S'320585'
p3018
sS'mc'
p3019
S'\xe5\xa4\xaa\xe4\xbb\x93'
p3020
sS'sl'
p3021
I1
ssS'boxingxian'
p3022
(dp3023
S'jc'
p3024
S'bxx'
p3025
sS'py'
p3026
g3022
sS'id'
p3027
S'372328'
p3028
sS'mc'
p3029
S'\xe5\x8d\x9a\xe5\x85\xb4\xe5\x8e\xbf'
p3030
sS'sl'
p3031
I1
ssS'fuan'
p3032
(dp3033
S'jc'
p3034
S'fa'
p3035
sS'py'
p3036
g3032
sS'id'
p3037
S'350981'
p3038
sS'mc'
p3039
S'\xe7\xa6\x8f\xe5\xae\x89'
p3040
sS'sl'
p3041
I1
ssS'lanzhou'
p3042
(dp3043
S'jc'
p3044
S'lz'
p3045
sS'py'
p3046
g3042
sS'id'
p3047
S'6201'
p3048
sS'mc'
p3049
S'\xe5\x85\xb0\xe5\xb7\x9e'
p3050
sS'sl'
p3051
I31
ssS'shantou'
p3052
(dp3053
S'jc'
p3054
S'st'
p3055
sS'py'
p3056
g3052
sS'id'
p3057
S'4405'
p3058
sS'mc'
p3059
S'\xe6\xb1\x95\xe5\xa4\xb4'
p3060
sS'sl'
p3061
I3
ssS'kunming'
p3062
(dp3063
S'jc'
p3064
S'km'
p3065
sS'py'
p3066
g3062
sS'id'
p3067
S'5301'
p3068
sS'mc'
p3069
S'\xe6\x98\x86\xe6\x98\x8e'
p3070
sS'sl'
p3071
I27
ssS'yiningshi'
p3072
(dp3073
S'jc'
p3074
S'yns'
p3075
sS'py'
p3076
g3072
sS'id'
p3077
S'654002'
p3078
sS'mc'
p3079
S'\xe4\xbc\x8a\xe5\xae\x81\xe5\xb8\x82'
p3080
sS'sl'
p3081
I2
ssS'wulanhaote'
p3082
(dp3083
S'jc'
p3084
S'wlht'
p3085
sS'py'
p3086
g3082
sS'id'
p3087
S'152201'
p3088
sS'mc'
p3089
S'\xe4\xb9\x8c\xe5\x85\xb0\xe6\xb5\xa9\xe7\x89\xb9'
p3090
sS'sl'
p3091
I1
ssS'delingha'
p3092
(dp3093
S'jc'
p3094
S'dlh'
p3095
sS'py'
p3096
g3092
sS'id'
p3097
S'632802'
p3098
sS'mc'
p3099
S'\xe5\xbe\xb7\xe4\xbb\xa4\xe5\x93\x88'
p3100
sS'sl'
p3101
I1
ssS'fuding'
p3102
(dp3103
S'jc'
p3104
S'fd'
p3105
sS'py'
p3106
g3102
sS'id'
p3107
S'350982'
p3108
sS'mc'
p3109
S'\xe7\xa6\x8f\xe9\xbc\x8e'
p3110
sS'sl'
p3111
I2
ssS'haimen'
p3112
(dp3113
S'jc'
p3114
S'hm'
p3115
sS'py'
p3116
g3112
sS'id'
p3117
S'320684'
p3118
sS'mc'
p3119
S'\xe6\xb5\xb7\xe9\x97\xa8'
p3120
sS'sl'
p3121
I2
ssS'xinchangxianshaoxing'
p3122
(dp3123
S'jc'
p3124
S'xcx(sx)'
p3125
sS'py'
p3126
g3122
sS'id'
p3127
S'330624'
p3128
sS'mc'
p3129
S'\xe6\x96\xb0\xe6\x98\x8c\xe5\x8e\xbf(\xe7\xbb\x8d\xe5\x85\xb4)'
p3130
sS'sl'
p3131
I1
ssS'yishuilinyi'
p3132
(dp3133
S'jc'
p3134
S'ys(ly)'
p3135
sS'py'
p3136
g3132
sS'id'
p3137
S'372827'
p3138
sS'mc'
p3139
S'\xe6\xb2\x82\xe6\xb0\xb4(\xe4\xb8\xb4\xe6\xb2\x82)'
p3140
sS'sl'
p3141
I1
ssS'nanan'
p3142
(dp3143
S'jc'
p3144
S'na'
p3145
sS'py'
p3146
g3142
sS'id'
p3147
S'350583'
p3148
sS'mc'
p3149
S'\xe5\x8d\x97\xe5\xae\x89'
p3150
sS'sl'
p3151
I1
ssS'dunhuang'
p3152
(dp3153
S'jc'
p3154
S'dh'
p3155
sS'py'
p3156
g3152
sS'id'
p3157
S'620982'
p3158
sS'mc'
p3159
S'\xe6\x95\xa6\xe7\x85\x8c'
p3160
sS'sl'
p3161
I2
ssS'suzhou'
p3162
(dp3163
S'jc'
p3164
S'sz'
p3165
sS'py'
p3166
g3162
sS'id'
p3167
S'3205'
p3168
sS'mc'
p3169
S'\xe8\x8b\x8f\xe5\xb7\x9e'
p3170
sS'sl'
p3171
I75
ssS'changxing'
p3172
(dp3173
S'jc'
p3174
S'cx'
p3175
sS'py'
p3176
g3172
sS'id'
p3177
S'330522'
p3178
sS'mc'
p3179
S'\xe9\x95\xbf\xe5\x85\xb4'
p3180
sS'sl'
p3181
I1
ssS'bozhou'
p3182
(dp3183
S'jc'
p3184
S'bz'
p3185
sS'py'
p3186
g3182
sS'id'
p3187
S'3415'
p3188
sS'mc'
p3189
S'\xe4\xba\xb3\xe5\xb7\x9e'
p3190
sS'sl'
p3191
I5
ssS'huidong'
p3192
(dp3193
S'jc'
p3194
S'hd'
p3195
sS'py'
p3196
g3192
sS'id'
p3197
S'441323'
p3198
sS'mc'
p3199
S'\xe6\x83\xa0\xe4\xb8\x9c'
p3200
sS'sl'
p3201
I1
ssS'dongmingheze'
p3202
(dp3203
S'jc'
p3204
S'dm(hz)'
p3205
sS'py'
p3206
g3202
sS'id'
p3207
S'372930'
p3208
sS'mc'
p3209
S'\xe4\xb8\x9c\xe6\x98\x8e(\xe8\x8f\x8f\xe6\xb3\xbd)'
p3210
sS'sl'
p3211
I1
ssS'xian'
p3212
(dp3213
S'jc'
p3214
S'xa'
p3215
sS'py'
p3216
g3212
sS'id'
p3217
S'6101'
p3218
sS'mc'
p3219
S'\xe8\xa5\xbf\xe5\xae\x89'
p3220
sS'sl'
p3221
I134
ssS'qianan'
p3222
(dp3223
S'jc'
p3224
S'qa'
p3225
sS'py'
p3226
g3222
sS'id'
p3227
S'130530'
p3228
sS'mc'
p3229
S'\xe8\xbf\x81\xe5\xae\x89'
p3230
sS'sl'
p3231
I1
ssS'xilinhaote'
p3232
(dp3233
S'jc'
p3234
S'xlht'
p3235
sS'py'
p3236
g3232
sS'id'
p3237
S'152502'
p3238
sS'mc'
p3239
S'\xe9\x94\xa1\xe6\x9e\x97\xe6\xb5\xa9\xe7\x89\xb9'
p3240
sS'sl'
p3241
I1
ssS'jinzhong'
p3242
(dp3243
S'jc'
p3244
S'jz'
p3245
sS'py'
p3246
g3242
sS'id'
p3247
S'1424'
p3248
sS'mc'
p3249
S'\xe6\x99\x8b\xe4\xb8\xad'
p3250
sS'sl'
p3251
I9
ssS'baishan'
p3252
(dp3253
S'jc'
p3254
S'bs'
p3255
sS'py'
p3256
g3252
sS'id'
p3257
S'2206'
p3258
sS'mc'
p3259
S'\xe7\x99\xbd\xe5\xb1\xb1'
p3260
sS'sl'
p3261
I4
ssS'heshan(jiangmen)'
p3262
(dp3263
S'jc'
p3264
S'hs(jm)'
p3265
sS'py'
p3266
g3262
sS'id'
p3267
S'440784'
p3268
sS'mc'
p3269
S'\xe9\xb9\xa4\xe5\xb1\xb1(\xe6\xb1\x9f\xe9\x97\xa8)'
p3270
sS'sl'
p3271
I0
ssS'chengzhou'
p3272
(dp3273
S'jc'
p3274
S'cz'
p3275
sS'py'
p3276
g3272
sS'id'
p3277
S'4310'
p3278
sS'mc'
p3279
S'\xe9\x83\xb4\xe5\xb7\x9e'
p3280
sS'sl'
p3281
I2
ssS'akesu'
p3282
(dp3283
S'jc'
p3284
S'aks'
p3285
sS'py'
p3286
g3282
sS'id'
p3287
S'652901'
p3288
sS'mc'
p3289
S'\xe9\x98\xbf\xe5\x85\x8b\xe8\x8b\x8f'
p3290
sS'sl'
p3291
I1
ssS'jianhuyancheng'
p3292
(dp3293
S'jc'
p3294
S'jh(yc)'
p3295
sS'py'
p3296
g3292
sS'id'
p3297
S'320925'
p3298
sS'mc'
p3299
S'\xe5\xbb\xba\xe6\xb9\x96(\xe7\x9b\x90\xe5\x9f\x8e)'
p3300
sS'sl'
p3301
I1
ssS'baoding'
p3302
(dp3303
S'jc'
p3304
S'bd'
p3305
sS'py'
p3306
g3302
sS'id'
p3307
S'1306'
p3308
sS'mc'
p3309
S'\xe4\xbf\x9d\xe5\xae\x9a'
p3310
sS'sl'
p3311
I11
ssS'huzhou'
p3312
(dp3313
S'jc'
p3314
S'hz'
p3315
sS'py'
p3316
g3312
sS'id'
p3317
S'3305'
p3318
sS'mc'
p3319
S'\xe6\xb9\x96\xe5\xb7\x9e'
p3320
sS'sl'
p3321
I4
ssS'dujiagnyanshi'
p3322
(dp3323
S'jc'
p3324
S'djy'
p3325
sS'py'
p3326
g3322
sS'id'
p3327
S'510181'
p3328
sS'mc'
p3329
S'\xe9\x83\xbd\xe6\xb1\x9f\xe5\xa0\xb0'
p3330
sS'sl'
p3331
I6
ssS'taizhou2'
p3332
(dp3333
S'jc'
p3334
S'tz'
p3335
sS'py'
p3336
g3332
sS'id'
p3337
S'3310'
p3338
sS'mc'
p3339
S'\xe5\x8f\xb0\xe5\xb7\x9e'
p3340
sS'sl'
p3341
I6
ssS'yancheng'
p3342
(dp3343
S'jc'
p3344
S'yc'
p3345
sS'py'
p3346
g3342
sS'id'
p3347
S'3209'
p3348
sS'mc'
p3349
S'\xe7\x9b\x90\xe5\x9f\x8e'
p3350
sS'sl'
p3351
I15
ssS'haerbin'
p3352
(dp3353
S'jc'
p3354
S'heb'
p3355
sS'py'
p3356
g3352
sS'id'
p3357
S'2301'
p3358
sS'mc'
p3359
S'\xe5\x93\x88\xe5\xb0\x94\xe6\xbb\xa8'
p3360
sS'sl'
p3361
I39
ssS'baotou'
p3362
(dp3363
S'jc'
p3364
S'bt'
p3365
sS'py'
p3366
g3362
sS'id'
p3367
S'1502'
p3368
sS'mc'
p3369
S'\xe5\x8c\x85\xe5\xa4\xb4'
p3370
sS'sl'
p3371
I6
ssS'yangjiang'
p3372
(dp3373
S'jc'
p3374
S'yj'
p3375
sS'py'
p3376
g3372
sS'id'
p3377
S'4417'
p3378
sS'mc'
p3379
S'\xe9\x98\xb3\xe6\xb1\x9f'
p3380
sS'sl'
p3381
I0
ssS'shuzhoushi'
p3382
(dp3383
S'jc'
p3384
S'xz'
p3385
sS'py'
p3386
g3382
sS'id'
p3387
S'3413'
p3388
sS'mc'
p3389
S'\xe5\xae\xbf\xe5\xb7\x9e'
p3390
sS'sl'
p3391
I2
ssS'fukang'
p3392
(dp3393
S'jc'
p3394
S'fk'
p3395
sS'py'
p3396
g3392
sS'id'
p3397
S'652302'
p3398
sS'mc'
p3399
S'\xe9\x98\x9c\xe5\xba\xb7'
p3400
sS'sl'
p3401
I1
ssS'jinzhou'
p3402
(dp3403
S'jc'
p3404
S'jz'
p3405
sS'py'
p3406
g3402
sS'id'
p3407
S'2107'
p3408
sS'mc'
p3409
S'\xe9\x94\xa6\xe5\xb7\x9e'
p3410
sS'sl'
p3411
I5
ssS'hanzhong'
p3412
(dp3413
S'jc'
p3414
S'hz'
p3415
sS'py'
p3416
g3412
sS'id'
p3417
S'6107'
p3418
sS'mc'
p3419
S'\xe6\xb1\x89\xe4\xb8\xad'
p3420
sS'sl'
p3421
I4
ssS'kaiyuan'
p3422
(dp3423
S'jc'
p3424
S'ky'
p3425
sS'py'
p3426
g3422
sS'id'
p3427
S'211282'
p3428
sS'mc'
p3429
S'\xe5\xbc\x80\xe5\x8e\x9f'
p3430
sS'sl'
p3431
I1
ssS'shenzhen'
p3432
(dp3433
S'jc'
p3434
S'sz'
p3435
sS'py'
p3436
g3432
sS'id'
p3437
S'4403'
p3438
sS'mc'
p3439
S'\xe6\xb7\xb1\xe5\x9c\xb3'
p3440
sS'sl'
p3441
I56
ssS'maoming'
p3442
(dp3443
S'jc'
p3444
S'mm'
p3445
sS'py'
p3446
g3442
sS'id'
p3447
S'4409'
p3448
sS'mc'
p3449
S'\xe8\x8c\x82\xe5\x90\x8d'
p3450
sS'sl'
p3451
I1
ssS'daqing'
p3452
(dp3453
S'jc'
p3454
S'dq'
p3455
sS'py'
p3456
g3452
sS'id'
p3457
S'2306'
p3458
sS'mc'
p3459
S'\xe5\xa4\xa7\xe5\xba\x86'
p3460
sS'sl'
p3461
I5
ssS'zouchengjining'
p3462
(dp3463
S'jc'
p3464
S'zc(jn)'
p3465
sS'py'
p3466
g3462
sS'id'
p3467
S'370883'
p3468
sS'mc'
p3469
S'\xe9\x82\xb9\xe5\x9f\x8e(\xe6\xb5\x8e\xe5\xae\x81)'
p3470
sS'sl'
p3471
I1
ssS'shuyangsuqian'
p3472
(dp3473
S'jc'
p3474
S'sy(xq)'
p3475
sS'py'
p3476
g3472
sS'id'
p3477
S'320823'
p3478
sS'mc'
p3479
S'\xe6\xb2\xad\xe9\x98\xb3(\xe5\xae\xbf\xe8\xbf\x81)'
p3480
sS'sl'
p3481
I3
ssS'putian'
p3482
(dp3483
S'jc'
p3484
S'pt'
p3485
sS'py'
p3486
g3482
sS'id'
p3487
S'3503'
p3488
sS'mc'
p3489
S'\xe8\x8e\x86\xe7\x94\xb0'
p3490
sS'sl'
p3491
I2
ssS'hongzehuaian'
p3492
(dp3493
S'jc'
p3494
S'hz(ha)'
p3495
sS'py'
p3496
g3492
sS'id'
p3497
S'320829'
p3498
sS'mc'
p3499
S'\xe6\xb4\xaa\xe6\xb3\xbd(\xe6\xb7\xae\xe5\xae\x89)'
p3500
sS'sl'
p3501
I1
ssS'anshan'
p3502
(dp3503
S'jc'
p3504
S'as'
p3505
sS'py'
p3506
g3502
sS'id'
p3507
S'2103'
p3508
sS'mc'
p3509
S'\xe9\x9e\x8d\xe5\xb1\xb1'
p3510
sS'sl'
p3511
I3
ssS'yuncheng'
p3512
(dp3513
S'jc'
p3514
S'yc'
p3515
sS'py'
p3516
g3512
sS'id'
p3517
S'1810'
p3518
sS'mc'
p3519
S'\xe8\xbf\x90\xe5\x9f\x8e'
p3520
sS'sl'
p3521
I3
ssS'laixi'
p3522
(dp3523
S'jc'
p3524
S'lx(qd)'
p3525
sS'py'
p3526
g3522
sS'id'
p3527
S'370285'
p3528
sS'mc'
p3529
S'\xe8\x8e\xb1\xe8\xa5\xbf(\xe9\x9d\x92\xe5\xb2\x9b)'
p3530
sS'sl'
p3531
I1
ssS'ganzhou'
p3532
(dp3533
S'jc'
p3534
S'gz'
p3535
sS'py'
p3536
g3532
sS'id'
p3537
S'3607'
p3538
sS'mc'
p3539
S'\xe8\xb5\xa3\xe5\xb7\x9e'
p3540
sS'sl'
p3541
I2
ssS'tongluhangzhou'
p3542
(dp3543
S'jc'
p3544
S'tl(hz)'
p3545
sS'py'
p3546
g3542
sS'id'
p3547
S'330122'
p3548
sS'mc'
p3549
S'\xe6\xa1\x90\xe5\xba\x90(\xe6\x9d\xad\xe5\xb7\x9e)'
p3550
sS'sl'
p3551
I1
ssS'xingyang'
p3552
(dp3553
S'jc'
p3554
S'yy'
p3555
sS'py'
p3556
g3552
sS'id'
p3557
S'410182'
p3558
sS'mc'
p3559
S'\xe8\x8d\xa5\xe9\x98\xb3'
p3560
sS'sl'
p3561
I1
ssS'zhengzhou'
p3562
(dp3563
S'jc'
p3564
S'zz'
p3565
sS'py'
p3566
g3562
sS'id'
p3567
S'4101'
p3568
sS'mc'
p3569
S'\xe9\x83\x91\xe5\xb7\x9e'
p3570
sS'sl'
p3571
I64
ssS'xuancheng'
p3572
(dp3573
S'jc'
p3574
S'xc'
p3575
sS'py'
p3576
g3572
sS'id'
p3577
S'3417'
p3578
sS'mc'
p3579
S'\xe5\xae\xa3\xe5\x9f\x8e'
p3580
sS'sl'
p3581
I1
ssS'rizhao'
p3582
(dp3583
S'jc'
p3584
S'rz'
p3585
sS'py'
p3586
g3582
sS'id'
p3587
S'3711'
p3588
sS'mc'
p3589
S'\xe6\x97\xa5\xe7\x85\xa7'
p3590
sS'sl'
p3591
I5
ssS'zhaoyuanyantai'
p3592
(dp3593
S'jc'
p3594
S'zy(yt)'
p3595
sS'py'
p3596
g3592
sS'id'
p3597
S'370685'
p3598
sS'mc'
p3599
S'\xe6\x8b\x9b\xe8\xbf\x9c(\xe7\x83\x9f\xe5\x8f\xb0)'
p3600
sS'sl'
p3601
I2
ssS'liangshanjining'
p3602
(dp3603
S'jc'
p3604
S'ls(jn)'
p3605
sS'py'
p3606
g3602
sS'id'
p3607
S'370832'
p3608
sS'mc'
p3609
S'\xe6\xa2\x81\xe5\xb1\xb1(\xe6\xb5\x8e\xe5\xae\x81)'
p3610
sS'sl'
p3611
I2
ssS'changning'
p3612
(dp3613
S'jc'
p3614
S'cn'
p3615
sS'py'
p3616
g3612
sS'id'
p3617
S'511524'
p3618
sS'mc'
p3619
S'\xe9\x95\xbf\xe5\xae\x81'
p3620
sS'sl'
p3621
I1
ssS'neijiang'
p3622
(dp3623
S'jc'
p3624
S'nj'
p3625
sS'py'
p3626
g3622
sS'id'
p3627
S'5110'
p3628
sS'mc'
p3629
S'\xe5\x86\x85\xe6\xb1\x9f'
p3630
sS'sl'
p3631
I2
ssS'hebishi'
p3632
(dp3633
S'jc'
p3634
S'hb'
p3635
sS'py'
p3636
g3632
sS'id'
p3637
S'4106'
p3638
sS'mc'
p3639
S'\xe9\xb9\xa4\xe5\xa3\x81'
p3640
sS'sl'
p3641
I3
ssS'ninghainingbo'
p3642
(dp3643
S'jc'
p3644
S'nh(nb)'
p3645
sS'py'
p3646
g3642
sS'id'
p3647
S'330226'
p3648
sS'mc'
p3649
S'\xe5\xae\x81\xe6\xb5\xb7(\xe5\xae\x81\xe6\xb3\xa2)'
p3650
sS'sl'
p3651
I2
ssS'zhangqiujinan'
p3652
(dp3653
S'jc'
p3654
S'zq\xef\xbc\x88jn\xef\xbc\x89'
p3655
sS'py'
p3656
g3652
sS'id'
p3657
S'370181'
p3658
sS'mc'
p3659
S'\xe7\xab\xa0\xe4\xb8\x98\xef\xbc\x88\xe6\xb5\x8e\xe5\x8d\x97\xef\xbc\x89'
p3660
sS'sl'
p3661
I1
ssS'shangqiu'
p3662
(dp3663
S'jc'
p3664
S'sq'
p3665
sS'py'
p3666
g3662
sS'id'
p3667
S'4114'
p3668
sS'mc'
p3669
S'\xe5\x95\x86\xe4\xb8\x98'
p3670
sS'sl'
p3671
I8
ssS'tianchang'
p3672
(dp3673
S'jc'
p3674
S'tc'
p3675
sS'py'
p3676
g3672
sS'id'
p3677
S'341181'
p3678
sS'mc'
p3679
S'\xe5\xa4\xa9\xe9\x95\xbf'
p3680
sS'sl'
p3681
I2
ssS'qidong'
p3682
(dp3683
S'jc'
p3684
S'qd'
p3685
sS'py'
p3686
g3682
sS'id'
p3687
S'320681'
p3688
sS'mc'
p3689
S'\xe5\x90\xaf\xe4\xb8\x9c'
p3690
sS'sl'
p3691
I4
ssS'wudibinzhou'
p3692
(dp3693
S'jc'
p3694
S'wd(bz)'
p3695
sS'py'
p3696
g3692
sS'id'
p3697
S'372324'
p3698
sS'mc'
p3699
S'\xe6\x97\xa0\xe6\xa3\xa3(\xe6\xbb\xa8\xe5\xb7\x9e)'
p3700
sS'sl'
p3701
I1
ssS'chongli'
p3702
(dp3703
S'jc'
p3704
S'cl'
p3705
sS'py'
p3706
g3702
sS'id'
p3707
S'130733'
p3708
sS'mc'
p3709
S'\xe5\xb4\x87\xe7\xa4\xbc'
p3710
sS'sl'
p3711
I1
ssS'kashidiqu'
p3712
(dp3713
S'jc'
p3714
S'ks'
p3715
sS'py'
p3716
g3712
sS'id'
p3717
S'653101'
p3718
sS'mc'
p3719
S'\xe5\x96\x80\xe4\xbb\x80'
p3720
sS'sl'
p3721
I2
ssS'qixiayantai'
p3722
(dp3723
S'jc'
p3724
S'qx(yt)'
p3725
sS'py'
p3726
g3722
sS'id'
p3727
S'370686'
p3728
sS'mc'
p3729
S'\xe6\xa0\x96\xe9\x9c\x9e(\xe7\x83\x9f\xe5\x8f\xb0)'
p3730
sS'sl'
p3731
I1
ssS'nanning'
p3732
(dp3733
S'jc'
p3734
S'nn'
p3735
sS'py'
p3736
g3732
sS'id'
p3737
S'4501'
p3738
sS'mc'
p3739
S'\xe5\x8d\x97\xe5\xae\x81'
p3740
sS'sl'
p3741
I6
ssS'haiannantong'
p3742
(dp3743
S'jc'
p3744
S'ha(nt)'
p3745
sS'py'
p3746
g3742
sS'id'
p3747
S'320621'
p3748
sS'mc'
p3749
S'\xe6\xb5\xb7\xe5\xae\x89(\xe5\x8d\x97\xe9\x80\x9a)'
p3750
sS'sl'
p3751
I2
ssS'guiyang'
p3752
(dp3753
S'jc'
p3754
S'gy'
p3755
sS'py'
p3756
g3752
sS'id'
p3757
S'5201'
p3758
sS'mc'
p3759
S'\xe8\xb4\xb5\xe9\x98\xb3'
p3760
sS'sl'
p3761
I14
ssS'fuzhou'
p3762
(dp3763
S'jc'
p3764
S'fz'
p3765
sS'py'
p3766
g3762
sS'id'
p3767
S'3501'
p3768
sS'mc'
p3769
S'\xe7\xa6\x8f\xe5\xb7\x9e'
p3770
sS'sl'
p3771
I37
ssS'jimoqingdao'
p3772
(dp3773
S'jc'
p3774
S'jm(qd)'
p3775
sS'py'
p3776
g3772
sS'id'
p3777
S'370282'
p3778
sS'mc'
p3779
S'\xe5\x8d\xb3\xe5\xa2\xa8(\xe9\x9d\x92\xe5\xb2\x9b)'
p3780
sS'sl'
p3781
I3
ssS'linfen'
p3782
(dp3783
S'jc'
p3784
S'lf'
p3785
sS'py'
p3786
g3782
sS'id'
p3787
S'1426'
p3788
sS'mc'
p3789
S'\xe4\xb8\xb4\xe6\xb1\xbe'
p3790
sS'sl'
p3791
I4
ssS'penglaiyantai'
p3792
(dp3793
S'jc'
p3794
S'pl(yt)'
p3795
sS'py'
p3796
g3792
sS'id'
p3797
S'370684'
p3798
sS'mc'
p3799
S'\xe8\x93\xac\xe8\x8e\xb1(\xe7\x83\x9f\xe5\x8f\xb0)'
p3800
sS'sl'
p3801
I2
ssS'yulin'
p3802
(dp3803
S'jc'
p3804
S'yl'
p3805
sS'py'
p3806
g3802
sS'id'
p3807
S'6127'
p3808
sS'mc'
p3809
S'\xe6\xa6\x86\xe6\x9e\x97'
p3810
sS'sl'
p3811
I11
ssS'chaozhou'
p3812
(dp3813
S'jc'
p3814
S'cz'
p3815
sS'py'
p3816
g3812
sS'id'
p3817
S'4451'
p3818
sS'mc'
p3819
S'\xe6\xbd\xae\xe5\xb7\x9e'
p3820
sS'sl'
p3821
I1
ssS'xianggelila'
p3822
(dp3823
S'jc'
p3824
S'xgll'
p3825
sS'py'
p3826
g3822
sS'id'
p3827
S'533421'
p3828
sS'mc'
p3829
S'\xe9\xa6\x99\xe6\xa0\xbc\xe9\x87\x8c\xe6\x8b\x89'
p3830
sS'sl'
p3831
I1
ssS'maanshan'
p3832
(dp3833
S'jc'
p3834
S'mas'
p3835
sS'py'
p3836
g3832
sS'id'
p3837
S'3405'
p3838
sS'mc'
p3839
S'\xe9\xa9\xac\xe9\x9e\x8d\xe5\xb1\xb1'
p3840
sS'sl'
p3841
I5
ssS'mudanjiang'
p3842
(dp3843
S'jc'
p3844
S'mdj'
p3845
sS'py'
p3846
g3842
sS'id'
p3847
S'2310'
p3848
sS'mc'
p3849
S'\xe7\x89\xa1\xe4\xb8\xb9\xe6\xb1\x9f'
p3850
sS'sl'
p3851
I4
ssS'jining'
p3852
(dp3853
S'jc'
p3854
S'jn'
p3855
sS'py'
p3856
g3852
sS'id'
p3857
S'3708'
p3858
sS'mc'
p3859
S'\xe6\xb5\x8e\xe5\xae\x81'
p3860
sS'sl'
p3861
I16
ssS'wulumuqi'
p3862
(dp3863
S'jc'
p3864
S'wlmq'
p3865
sS'py'
p3866
g3862
sS'id'
p3867
S'6501'
p3868
sS'mc'
p3869
S'\xe4\xb9\x8c\xe9\xb2\x81\xe6\x9c\xa8\xe9\xbd\x90'
p3870
sS'sl'
p3871
I28
ssS'suiningxuzhou'
p3872
(dp3873
S'jc'
p3874
S'sn(xz)'
p3875
sS'py'
p3876
g3872
sS'id'
p3877
S'320324'
p3878
sS'mc'
p3879
S'\xe7\x9d\xa2\xe5\xae\x81(\xe5\xbe\x90\xe5\xb7\x9e)'
p3880
sS'sl'
p3881
I1
ssS'handan'
p3882
(dp3883
S'jc'
p3884
S'hd'
p3885
sS'py'
p3886
g3882
sS'id'
p3887
S'1304'
p3888
sS'mc'
p3889
S'\xe9\x82\xaf\xe9\x83\xb8'
p3890
sS'sl'
p3891
I8
ssS'xuchang'
p3892
(dp3893
S'jc'
p3894
S'xc'
p3895
sS'py'
p3896
g3892
sS'id'
p3897
S'4110'
p3898
sS'mc'
p3899
S'\xe8\xae\xb8\xe6\x98\x8c'
p3900
sS'sl'
p3901
I3
ssS'jiujiang'
p3902
(dp3903
S'jc'
p3904
S'jj'
p3905
sS'py'
p3906
g3902
sS'id'
p3907
S'3604'
p3908
sS'mc'
p3909
S'\xe4\xb9\x9d\xe6\xb1\x9f'
p3910
sS'sl'
p3911
I15
ssS'zhangye'
p3912
(dp3913
S'jc'
p3914
S'zy'
p3915
sS'py'
p3916
g3912
sS'id'
p3917
S'622201'
p3918
sS'mc'
p3919
S'\xe5\xbc\xa0\xe6\x8e\x96'
p3920
sS'sl'
p3921
I5
ssS'laiwushi'
p3922
(dp3923
S'jc'
p3924
S'lw'
p3925
sS'py'
p3926
g3922
sS'id'
p3927
S'3712'
p3928
sS'mc'
p3929
S'\xe8\x8e\xb1\xe8\x8a\x9c'
p3930
sS'sl'
p3931
I3
ssS'pingtanxian'
p3932
(dp3933
S'jc'
p3934
S'ptx'
p3935
sS'py'
p3936
g3932
sS'id'
p3937
S'350128'
p3938
sS'mc'
p3939
S'\xe5\xb9\xb3\xe6\xbd\xad\xe5\x8e\xbf'
p3940
sS'sl'
p3941
I1
ssS'quzhou'
p3942
(dp3943
S'jc'
p3944
S'qz'
p3945
sS'py'
p3946
g3942
sS'id'
p3947
S'3308'
p3948
sS'mc'
p3949
S'\xe8\xa1\xa2\xe5\xb7\x9e'
p3950
sS'sl'
p3951
I1
ssS'shangrao'
p3952
(dp3953
S'jc'
p3954
S'sr'
p3955
sS'py'
p3956
g3952
sS'id'
p3957
S'3623'
p3958
sS'mc'
p3959
S'\xe4\xb8\x8a\xe9\xa5\xb6'
p3960
sS'sl'
p3961
I3
ssS'luoyang'
p3962
(dp3963
S'jc'
p3964
S'ly'
p3965
sS'py'
p3966
g3962
sS'id'
p3967
S'4103'
p3968
sS'mc'
p3969
S'\xe6\xb4\x9b\xe9\x98\xb3'
p3970
sS'sl'
p3971
I21
ssS'hegang'
p3972
(dp3973
S'jc'
p3974
S'hg'
p3975
sS'py'
p3976
g3972
sS'id'
p3977
S'2304'
p3978
sS'mc'
p3979
S'\xe9\xb9\xa4\xe5\xb2\x97'
p3980
sS'sl'
p3981
I1
ssS'yizheng'
p3982
(dp3983
S'jc'
p3984
S'yz'
p3985
sS'py'
p3986
g3982
sS'id'
p3987
S'321081'
p3988
sS'mc'
p3989
S'\xe4\xbb\xaa\xe5\xbe\x81'
p3990
sS'sl'
p3991
I3
ssS'qingdao'
p3992
(dp3993
S'jc'
p3994
S'qd'
p3995
sS'py'
p3996
g3992
sS'id'
p3997
S'3702'
p3998
sS'mc'
p3999
S'\xe9\x9d\x92\xe5\xb2\x9b'
p4000
sS'sl'
p4001
I81
ssS'suqian'
p4002
(dp4003
S'jc'
p4004
S'xq'
p4005
sS'py'
p4006
g4002
sS'id'
p4007
S'3213'
p4008
sS'mc'
p4009
S'\xe5\xae\xbf\xe8\xbf\x81'
p4010
sS'sl'
p4011
I7
ssS'yiyuanzibo'
p4012
(dp4013
S'jc'
p4014
S'yy(zb)'
p4015
sS'py'
p4016
g4012
sS'id'
p4017
S'370323'
p4018
sS'mc'
p4019
S'\xe6\xb2\x82\xe6\xba\x90(\xe6\xb7\x84\xe5\x8d\x9a)'
p4020
sS'sl'
p4021
I1
ssS'hancheng'
p4022
(dp4023
S'jc'
p4024
S'hc'
p4025
sS'py'
p4026
g4022
sS'id'
p4027
S'610581'
p4028
sS'mc'
p4029
S'\xe9\x9f\xa9\xe5\x9f\x8e'
p4030
sS'sl'
p4031
I1
ssS'zhuji'
p4032
(dp4033
S'jc'
p4034
S'zj'
p4035
sS'py'
p4036
g4032
sS'id'
p4037
S'330681'
p4038
sS'mc'
p4039
S'\xe8\xaf\xb8\xe6\x9a\xa8'
p4040
sS'sl'
p4041
I3
ssS'ningde'
p4042
(dp4043
S'jc'
p4044
S'nd'
p4045
sS'py'
p4046
g4042
sS'id'
p4047
S'352201'
p4048
sS'mc'
p4049
S'\xe5\xae\x81\xe5\xbe\xb7'
p4050
sS'sl'
p4051
I5
ssS'chengdu'
p4052
(dp4053
S'jc'
p4054
S'cd'
p4055
sS'py'
p4056
g4052
sS'id'
p4057
S'5101'
p4058
sS'mc'
p4059
S'\xe6\x88\x90\xe9\x83\xbd'
p4060
sS'sl'
p4061
I90
ssS'jian'
p4062
(dp4063
S'jc'
p4064
S'ja'
p4065
sS'py'
p4066
g4062
sS'id'
p4067
S'3624'
p4068
sS'mc'
p4069
S'\xe5\x90\x89\xe5\xae\x89'
p4070
sS'sl'
p4071
I3
ssS'zibo'
p4072
(dp4073
S'jc'
p4074
S'zb'
p4075
sS'py'
p4076
g4072
sS'id'
p4077
S'3703'
p4078
sS'mc'
p4079
S'\xe6\xb7\x84\xe5\x8d\x9a'
p4080
sS'sl'
p4081
I13
ssS'langxi'
p4082
(dp4083
S'jc'
p4084
S'lx'
p4085
sS'py'
p4086
g4082
sS'id'
p4087
S'341722'
p4088
sS'mc'
p4089
S'\xe9\x83\x8e\xe6\xba\xaa'
p4090
sS'sl'
p4091
I1
ssS'wulanchabu'
p4092
(dp4093
S'jc'
p4094
S'wlcb'
p4095
sS'py'
p4096
g4092
sS'id'
p4097
S'1526'
p4098
sS'mc'
p4099
S'\xe4\xb9\x8c\xe5\x85\xb0\xe5\xaf\x9f\xe5\xb8\x83'
p4100
sS'sl'
p4101
I2
ssS'chengde'
p4102
(dp4103
S'jc'
p4104
S'cd'
p4105
sS'py'
p4106
g4102
sS'id'
p4107
S'1308'
p4108
sS'mc'
p4109
S'\xe6\x89\xbf\xe5\xbe\xb7'
p4110
sS'sl'
p4111
I6
ssS'nanchangxiannanchang'
p4112
(dp4113
S'jc'
p4114
S'ncx(nc)'
p4115
sS'py'
p4116
g4112
sS'id'
p4117
S'360121'
p4118
sS'mc'
p4119
S'\xe5\x8d\x97\xe6\x98\x8c\xe5\x8e\xbf(\xe5\x8d\x97\xe6\x98\x8c)'
p4120
sS'sl'
p4121
I1
ssS'xiangshanxianningbo'
p4122
(dp4123
S'jc'
p4124
S'xs(nb)'
p4125
sS'py'
p4126
g4122
sS'id'
p4127
S'330225'
p4128
sS'mc'
p4129
S'\xe8\xb1\xa1\xe5\xb1\xb1(\xe5\xae\x81\xe6\xb3\xa2)'
p4130
sS'sl'
p4131
I2
ssS'nanyangshi'
p4132
(dp4133
S'jc'
p4134
S'ny'
p4135
sS'py'
p4136
g4132
sS'id'
p4137
S'4113'
p4138
sS'mc'
p4139
S'\xe5\x8d\x97\xe9\x98\xb3'
p4140
sS'sl'
p4141
I0
ssS'yiyang'
p4142
(dp4143
S'jc'
p4144
S'yy'
p4145
sS'py'
p4146
g4142
sS'id'
p4147
S'4309'
p4148
sS'mc'
p4149
S'\xe7\x9b\x8a\xe9\x98\xb3'
p4150
sS'sl'
p4151
I1
ssS'guangyuan'
p4152
(dp4153
S'jc'
p4154
S'gys'
p4155
sS'py'
p4156
g4152
sS'id'
p4157
S'5108'
p4158
sS'mc'
p4159
S'\xe5\xb9\xbf\xe5\x85\x83\xe5\xb8\x82'
p4160
sS'sl'
p4161
I2
ssS'xianyang'
p4162
(dp4163
S'jc'
p4164
S'xy'
p4165
sS'py'
p4166
g4162
sS'id'
p4167
S'6104'
p4168
sS'mc'
p4169
S'\xe5\x92\xb8\xe9\x98\xb3'
p4170
sS'sl'
p4171
I3
ssS'dezhou'
p4172
(dp4173
S'jc'
p4174
S'dz'
p4175
sS'py'
p4176
g4172
sS'id'
p4177
S'3714'
p4178
sS'mc'
p4179
S'\xe5\xbe\xb7\xe5\xb7\x9e'
p4180
sS'sl'
p4181
I6
ssS'xishuangbanna'
p4182
(dp4183
S'jc'
p4184
S'xsbn'
p4185
sS'py'
p4186
g4182
sS'id'
p4187
S'5328'
p4188
sS'mc'
p4189
S'\xe8\xa5\xbf\xe5\x8f\x8c\xe7\x89\x88\xe7\xba\xb3'
p4190
sS'sl'
p4191
I4
ssS'wenzhou'
p4192
(dp4193
S'jc'
p4194
S'wz'
p4195
sS'py'
p4196
g4192
sS'id'
p4197
S'3303'
p4198
sS'mc'
p4199
S'\xe6\xb8\xa9\xe5\xb7\x9e'
p4200
sS'sl'
p4201
I7
ssS'zhoushan'
p4202
(dp4203
S'jc'
p4204
S'zs'
p4205
sS'py'
p4206
g4202
sS'id'
p4207
S'3309'
p4208
sS'mc'
p4209
S'\xe8\x88\x9f\xe5\xb1\xb1'
p4210
sS'sl'
p4211
I5
ssS'luzhou'
p4212
(dp4213
S'jc'
p4214
S'lz'
p4215
sS'py'
p4216
g4212
sS'id'
p4217
S'5105'
p4218
sS'mc'
p4219
S'\xe6\xb3\xb8\xe5\xb7\x9e'
p4220
sS'sl'
p4221
I1
ssS'yuyao'
p4222
(dp4223
S'jc'
p4224
S'yy'
p4225
sS'py'
p4226
g4222
sS'id'
p4227
S'330281'
p4228
sS'mc'
p4229
S'\xe4\xbd\x99\xe5\xa7\x9a'
p4230
sS'sl'
p4231
I5
ssS'liuzhou'
p4232
(dp4233
S'jc'
p4234
S'lz'
p4235
sS'py'
p4236
g4232
sS'id'
p4237
S'4502'
p4238
sS'mc'
p4239
S'\xe6\x9f\xb3\xe5\xb7\x9e'
p4240
sS'sl'
p4241
I1
ssS'luohe'
p4242
(dp4243
S'jc'
p4244
S'lh'
p4245
sS'py'
p4246
g4242
sS'id'
p4247
S'4111'
p4248
sS'mc'
p4249
S'\xe6\xbc\xaf\xe6\xb2\xb3'
p4250
sS'sl'
p4251
I1
ssS'chizhou'
p4252
(dp4253
S'jc'
p4254
S'cz'
p4255
sS'py'
p4256
g4252
sS'id'
p4257
S'3418'
p4258
sS'mc'
p4259
S'\xe6\xb1\xa0\xe5\xb7\x9e'
p4260
sS'sl'
p4261
I4
ssS'jinhuhuaian'
p4262
(dp4263
S'jc'
p4264
S'jh(ha)'
p4265
sS'py'
p4266
g4262
sS'id'
p4267
S'320831'
p4268
sS'mc'
p4269
S'\xe9\x87\x91\xe6\xb9\x96(\xe6\xb7\xae\xe5\xae\x89)'
p4270
sS'sl'
p4271
I1
ssS'yushanxianshangrao'
p4272
(dp4273
S'jc'
p4274
S'ys(sr)'
p4275
sS'py'
p4276
g4272
sS'id'
p4277
S'362323'
p4278
sS'mc'
p4279
S'\xe7\x8e\x89\xe5\xb1\xb1(\xe4\xb8\x8a\xe9\xa5\xb6)'
p4280
sS'sl'
p4281
I1
ssS'cangnanwenzhou'
p4282
(dp4283
S'jc'
p4284
S'cn(wz)'
p4285
sS'py'
p4286
g4282
sS'id'
p4287
S'330327'
p4288
sS'mc'
p4289
S'\xe8\x8b\x8d\xe5\x8d\x97(\xe6\xb8\xa9\xe5\xb7\x9e)'
p4290
sS'sl'
p4291
I1
ssS'jixi'
p4292
(dp4293
S'jc'
p4294
S'jx'
p4295
sS'py'
p4296
S'jixi'
p4297
sS'id'
p4298
S'342721'
p4299
sS'mc'
p4300
S'\xe7\xbb\xa9\xe6\xba\xaa'
p4301
sS'sl'
p4302
I1
ssS'chaoyang'
p4303
(dp4304
S'jc'
p4305
S'cy'
p4306
sS'py'
p4307
g4303
sS'id'
p4308
S'2113'
p4309
sS'mc'
p4310
S'\xe6\x9c\x9d\xe9\x98\xb3'
p4311
sS'sl'
p4312
I5
ssS'zhoukoushi'
p4313
(dp4314
S'jc'
p4315
S'zk'
p4316
sS'py'
p4317
g4313
sS'id'
p4318
S'4116'
p4319
sS'mc'
p4320
S'\xe5\x91\xa8\xe5\x8f\xa3'
p4321
sS'sl'
p4322
I4
ssS'yiwu'
p4323
(dp4324
S'jc'
p4325
S'yw'
p4326
sS'py'
p4327
g4323
sS'id'
p4328
S'330782'
p4329
sS'mc'
p4330
S'\xe4\xb9\x89\xe4\xb9\x8c'
p4331
sS'sl'
p4332
I3
ssS'guanyunxianlianyungang'
p4333
(dp4334
S'jc'
p4335
S'gyx(lyg)'
p4336
sS'py'
p4337
g4333
sS'id'
p4338
S'320723'
p4339
sS'mc'
p4340
S'\xe7\x81\x8c\xe4\xba\x91\xe5\x8e\xbf(\xe8\xbf\x9e\xe4\xba\x91\xe6\xb8\xaf)'
p4341
sS'sl'
p4342
I1
ssS'rushanweihai'
p4343
(dp4344
S'jc'
p4345
S'rs(wh)'
p4346
sS'py'
p4347
g4343
sS'id'
p4348
S'371083'
p4349
sS'mc'
p4350
S'\xe4\xb9\xb3\xe5\xb1\xb1(\xe5\xa8\x81\xe6\xb5\xb7)'
p4351
sS'sl'
p4352
I1
ssS'longyan'
p4353
(dp4354
S'jc'
p4355
S'ly'
p4356
sS'py'
p4357
g4353
sS'id'
p4358
S'3508'
p4359
sS'mc'
p4360
S'\xe9\xbe\x99\xe5\xb2\xa9'
p4361
sS'sl'
p4362
I3
ssS'juanchenxian'
p4363
(dp4364
S'jc'
p4365
S'jcx(hz)'
p4366
sS'py'
p4367
g4363
sS'id'
p4368
S'372929'
p4369
sS'mc'
p4370
S'\xe9\x84\x84\xe5\x9f\x8e\xe5\x8e\xbf(\xe8\x8f\x8f\xe6\xb3\xbd)'
p4371
sS'sl'
p4372
I1
ssS'pinghu'
p4373
(dp4374
S'jc'
p4375
S'ph'
p4376
sS'py'
p4377
g4373
sS'id'
p4378
S'330482'
p4379
sS'mc'
p4380
S'\xe5\xb9\xb3\xe6\xb9\x96'
p4381
sS'sl'
p4382
I2
ssS'qitaichangji'
p4383
(dp4384
S'jc'
p4385
S'qt(cj)'
p4386
sS'py'
p4387
g4383
sS'id'
p4388
S'652325'
p4389
sS'mc'
p4390
S'\xe5\xa5\x87\xe5\x8f\xb0(\xe6\x98\x8c\xe5\x90\x89)'
p4391
sS'sl'
p4392
I1
ssS'xinyu'
p4393
(dp4394
S'jc'
p4395
S'xy'
p4396
sS'py'
p4397
g4393
sS'id'
p4398
S'3605'
p4399
sS'mc'
p4400
S'\xe6\x96\xb0\xe4\xbd\x99'
p4401
sS'sl'
p4402
I4
ssS'dali'
p4403
(dp4404
S'jc'
p4405
S'dl'
p4406
sS'py'
p4407
g4403
sS'id'
p4408
S'532901'
p4409
sS'mc'
p4410
S'\xe5\xa4\xa7\xe7\x90\x86'
p4411
sS'sl'
p4412
I3
ssS'liuan'
p4413
(dp4414
S'jc'
p4415
S'la'
p4416
sS'py'
p4417
g4413
sS'id'
p4418
S'3414'
p4419
sS'mc'
p4420
S'\xe5\x85\xad\xe5\xae\x89'
p4421
sS'sl'
p4422
I5
ssS'xinyi'
p4423
(dp4424
S'jc'
p4425
S'xy'
p4426
sS'py'
p4427
g4423
sS'id'
p4428
S'320381'
p4429
sS'mc'
p4430
S'\xe6\x96\xb0\xe6\xb2\x82'
p4431
sS'sl'
p4432
I2
ssS'qianshananqing'
p4433
(dp4434
S'jc'
p4435
S'qs(aq)'
p4436
sS'py'
p4437
g4433
sS'id'
p4438
S'340824'
p4439
sS'mc'
p4440
S'\xe6\xbd\x9c\xe5\xb1\xb1(\xe5\xae\x89\xe5\xba\x86)'
p4441
sS'sl'
p4442
I1
ssS'baoji'
p4443
(dp4444
S'jc'
p4445
S'bj'
p4446
sS'py'
p4447
g4443
sS'id'
p4448
S'6103'
p4449
sS'mc'
p4450
S'\xe5\xae\x9d\xe9\xb8\xa1'
p4451
sS'sl'
p4452
I7
ssS'huangshan'
p4453
(dp4454
S'jc'
p4455
S'hs'
p4456
sS'py'
p4457
g4453
sS'id'
p4458
S'3410'
p4459
sS'mc'
p4460
S'\xe9\xbb\x84\xe5\xb1\xb1'
p4461
sS'sl'
p4462
I7
ssS'taiyuan'
p4463
(dp4464
S'jc'
p4465
S'ty'
p4466
sS'py'
p4467
g4463
sS'id'
p4468
S'1401'
p4469
sS'mc'
p4470
S'\xe5\xa4\xaa\xe5\x8e\x9f'
p4471
sS'sl'
p4472
I49
ss.